
nrf52840_qiaa.axf:     file format elf32-littlearm


Disassembly of section ER_IROM1:

00000000 <__Vectors>:
       0:	28 59 00 20 e9 03 00 00 f1 03 00 00 f3 03 00 00     (Y. ............
      10:	f5 03 00 00 f7 03 00 00 f9 03 00 00 00 00 00 00     ................
	...
      2c:	fb 03 00 00 d5 03 00 00 00 00 00 00 ff 03 00 00     ................
      3c:	01 04 00 00 03 04 00 00 03 04 00 00 cd 0c 00 00     ................
      4c:	03 04 00 00 03 04 00 00 03 04 00 00 03 04 00 00     ................
      5c:	03 04 00 00 03 04 00 00 03 04 00 00 03 04 00 00     ................
      6c:	03 04 00 00 03 04 00 00 03 04 00 00 03 04 00 00     ................
      7c:	03 04 00 00 03 04 00 00 03 04 00 00 03 04 00 00     ................
      8c:	03 04 00 00 03 04 00 00 03 04 00 00 03 04 00 00     ................
      9c:	03 04 00 00 03 04 00 00 03 04 00 00 03 04 00 00     ................
      ac:	03 04 00 00 03 04 00 00 03 04 00 00 00 00 00 00     ................
      bc:	00 00 00 00 03 04 00 00 03 04 00 00 03 04 00 00     ................
      cc:	03 04 00 00 03 04 00 00 03 04 00 00 03 04 00 00     ................
      dc:	03 04 00 00 03 04 00 00 03 04 00 00 03 04 00 00     ................
	...
      f4:	03 04 00 00 00 00 00 00 03 04 00 00 00 00 00 00     ................
	...

00000200 <__main>:
     200:	f8df d00c 	ldr.w	sp, [pc, #12]	; 210 <__rt_final_cpp>

00000204 <_main_scatterload>:
     204:	f000 fb86 	bl	914 <__scatterload>

00000208 <__main_after_scatterload>:
     208:	4800      	ldr	r0, [pc, #0]	; (20c <__main_after_scatterload+0x4>)
     20a:	4700      	bx	r0
     20c:	00003c59 	.word	0x00003c59

00000210 <__rt_final_cpp>:
     210:	20005928 	.word	0x20005928

00000214 <__asm___12_nrf_atomic_c_85ca2469__nrf_atomic_internal_mov>:
     214:	b430      	push	{r4, r5}
     216:	4604      	mov	r4, r0
     218:	e854 0f00 	ldrex	r0, [r4]
     21c:	460d      	mov	r5, r1
     21e:	e844 5300 	strex	r3, r5, [r4]
     222:	2b00      	cmp	r3, #0
     224:	d1f8      	bne.n	218 <__asm___12_nrf_atomic_c_85ca2469__nrf_atomic_internal_mov+0x4>
     226:	6015      	str	r5, [r2, #0]
     228:	bc30      	pop	{r4, r5}
     22a:	4770      	bx	lr

0000022c <__asm___12_nrf_atomic_c_85ca2469__nrf_atomic_internal_orr>:
     22c:	b430      	push	{r4, r5}
     22e:	4604      	mov	r4, r0
     230:	e854 0f00 	ldrex	r0, [r4]
     234:	ea40 0501 	orr.w	r5, r0, r1
     238:	e844 5300 	strex	r3, r5, [r4]
     23c:	2b00      	cmp	r3, #0
     23e:	d1f7      	bne.n	230 <__asm___12_nrf_atomic_c_85ca2469__nrf_atomic_internal_orr+0x4>
     240:	6015      	str	r5, [r2, #0]
     242:	bc30      	pop	{r4, r5}
     244:	4770      	bx	lr

00000246 <__asm___12_nrf_atomic_c_85ca2469__nrf_atomic_internal_and>:
     246:	b430      	push	{r4, r5}
     248:	4604      	mov	r4, r0
     24a:	e854 0f00 	ldrex	r0, [r4]
     24e:	ea00 0501 	and.w	r5, r0, r1
     252:	e844 5300 	strex	r3, r5, [r4]
     256:	2b00      	cmp	r3, #0
     258:	d1f7      	bne.n	24a <__asm___12_nrf_atomic_c_85ca2469__nrf_atomic_internal_and+0x4>
     25a:	6015      	str	r5, [r2, #0]
     25c:	bc30      	pop	{r4, r5}
     25e:	4770      	bx	lr

00000260 <__asm___12_nrf_atomic_c_85ca2469__nrf_atomic_internal_eor>:
     260:	b430      	push	{r4, r5}
     262:	4604      	mov	r4, r0
     264:	e854 0f00 	ldrex	r0, [r4]
     268:	ea80 0501 	eor.w	r5, r0, r1
     26c:	e844 5300 	strex	r3, r5, [r4]
     270:	2b00      	cmp	r3, #0
     272:	d1f7      	bne.n	264 <__asm___12_nrf_atomic_c_85ca2469__nrf_atomic_internal_eor+0x4>
     274:	6015      	str	r5, [r2, #0]
     276:	bc30      	pop	{r4, r5}
     278:	4770      	bx	lr

0000027a <__asm___12_nrf_atomic_c_85ca2469__nrf_atomic_internal_add>:
     27a:	b430      	push	{r4, r5}
     27c:	4604      	mov	r4, r0
     27e:	e854 0f00 	ldrex	r0, [r4]
     282:	eb00 0501 	add.w	r5, r0, r1
     286:	e844 5300 	strex	r3, r5, [r4]
     28a:	2b00      	cmp	r3, #0
     28c:	d1f7      	bne.n	27e <__asm___12_nrf_atomic_c_85ca2469__nrf_atomic_internal_add+0x4>
     28e:	6015      	str	r5, [r2, #0]
     290:	bc30      	pop	{r4, r5}
     292:	4770      	bx	lr

00000294 <__asm___12_nrf_atomic_c_85ca2469__nrf_atomic_internal_sub>:
     294:	b430      	push	{r4, r5}
     296:	4604      	mov	r4, r0
     298:	e854 0f00 	ldrex	r0, [r4]
     29c:	eba0 0501 	sub.w	r5, r0, r1
     2a0:	e844 5300 	strex	r3, r5, [r4]
     2a4:	2b00      	cmp	r3, #0
     2a6:	d1f7      	bne.n	298 <__asm___12_nrf_atomic_c_85ca2469__nrf_atomic_internal_sub+0x4>
     2a8:	6015      	str	r5, [r2, #0]
     2aa:	bc30      	pop	{r4, r5}
     2ac:	4770      	bx	lr

000002ae <__asm___12_nrf_atomic_c_85ca2469__nrf_atomic_internal_cmp_exch>:
     2ae:	b470      	push	{r4, r5, r6}
     2b0:	4604      	mov	r4, r0
     2b2:	f04f 0000 	mov.w	r0, #0
     2b6:	e854 6f00 	ldrex	r6, [r4]
     2ba:	680d      	ldr	r5, [r1, #0]
     2bc:	42ae      	cmp	r6, r5
     2be:	bf07      	ittee	eq
     2c0:	e844 2300 	strexeq	r3, r2, [r4]
     2c4:	2001      	moveq	r0, #1
     2c6:	e844 6300 	strexne	r3, r6, [r4]
     2ca:	600e      	strne	r6, [r1, #0]
     2cc:	2b00      	cmp	r3, #0
     2ce:	bf1c      	itt	ne
     2d0:	2000      	movne	r0, #0
     2d2:	e7f0      	bne.n	2b6 <__asm___12_nrf_atomic_c_85ca2469__nrf_atomic_internal_cmp_exch+0x8>
     2d4:	bc70      	pop	{r4, r5, r6}
     2d6:	4770      	bx	lr

000002d8 <__asm___12_nrf_atomic_c_85ca2469__nrf_atomic_internal_sub_hs>:
     2d8:	b430      	push	{r4, r5}
     2da:	4604      	mov	r4, r0
     2dc:	e854 0f00 	ldrex	r0, [r4]
     2e0:	4288      	cmp	r0, r1
     2e2:	bf2c      	ite	cs
     2e4:	1a45      	subcs	r5, r0, r1
     2e6:	4605      	movcc	r5, r0
     2e8:	e844 5300 	strex	r3, r5, [r4]
     2ec:	2b00      	cmp	r3, #0
     2ee:	d1f5      	bne.n	2dc <__asm___12_nrf_atomic_c_85ca2469__nrf_atomic_internal_sub_hs+0x4>
     2f0:	6015      	str	r5, [r2, #0]
     2f2:	bc30      	pop	{r4, r5}
     2f4:	4770      	bx	lr
	...

000002f8 <FPB_Handler0>:
     2f8:	bf00      	nop
     2fa:	bf00      	nop
     2fc:	bf00      	nop
     2fe:	bf00      	nop
     300:	e92d 500f 	stmdb	sp!, {r0, r1, r2, r3, ip, lr}
     304:	f01e 0f04 	tst.w	lr, #4
     308:	bf0c      	ite	eq
     30a:	f3ef 8008 	mrseq	r0, MSP
     30e:	f3ef 8009 	mrsne	r0, PSP
     312:	2100      	movs	r1, #0
     314:	f003 fb68 	bl	39e8 <leave_fpb_bpkt>
     318:	4605      	mov	r5, r0
     31a:	e8bd 500f 	ldmia.w	sp!, {r0, r1, r2, r3, ip, lr}
     31e:	46af      	mov	pc, r5

00000320 <FPB_Handler1>:
     320:	bf00      	nop
     322:	bf00      	nop
     324:	bf00      	nop
     326:	bf00      	nop
     328:	e92d 500f 	stmdb	sp!, {r0, r1, r2, r3, ip, lr}
     32c:	f01e 0f04 	tst.w	lr, #4
     330:	bf0c      	ite	eq
     332:	f3ef 8008 	mrseq	r0, MSP
     336:	f3ef 8009 	mrsne	r0, PSP
     33a:	2101      	movs	r1, #1
     33c:	f003 fb54 	bl	39e8 <leave_fpb_bpkt>
     340:	e8bd 500f 	ldmia.w	sp!, {r0, r1, r2, r3, ip, lr}
     344:	4770      	bx	lr

00000346 <FPB_Handler2>:
     346:	bf00      	nop
     348:	bf00      	nop
     34a:	bf00      	nop
     34c:	bf00      	nop
     34e:	e92d 500f 	stmdb	sp!, {r0, r1, r2, r3, ip, lr}
     352:	f01e 0f04 	tst.w	lr, #4
     356:	bf0c      	ite	eq
     358:	f3ef 8008 	mrseq	r0, MSP
     35c:	f3ef 8009 	mrsne	r0, PSP
     360:	2102      	movs	r1, #2
     362:	f003 fb41 	bl	39e8 <leave_fpb_bpkt>
     366:	e8bd 500f 	ldmia.w	sp!, {r0, r1, r2, r3, ip, lr}
     36a:	4770      	bx	lr

0000036c <FPB_Handler3>:
     36c:	bf00      	nop
     36e:	bf00      	nop
     370:	bf00      	nop
     372:	bf00      	nop
     374:	e92d 500f 	stmdb	sp!, {r0, r1, r2, r3, ip, lr}
     378:	f01e 0f04 	tst.w	lr, #4
     37c:	bf0c      	ite	eq
     37e:	f3ef 8008 	mrseq	r0, MSP
     382:	f3ef 8009 	mrsne	r0, PSP
     386:	2103      	movs	r1, #3
     388:	f003 fb2e 	bl	39e8 <leave_fpb_bpkt>
     38c:	e8bd 500f 	ldmia.w	sp!, {r0, r1, r2, r3, ip, lr}
     390:	4770      	bx	lr

00000392 <FPB_Handler4>:
     392:	bf00      	nop
     394:	bf00      	nop
     396:	bf00      	nop
     398:	bf00      	nop
     39a:	e92d 500f 	stmdb	sp!, {r0, r1, r2, r3, ip, lr}
     39e:	f01e 0f04 	tst.w	lr, #4
     3a2:	bf0c      	ite	eq
     3a4:	f3ef 8008 	mrseq	r0, MSP
     3a8:	f3ef 8009 	mrsne	r0, PSP
     3ac:	2104      	movs	r1, #4
     3ae:	f003 fb1b 	bl	39e8 <leave_fpb_bpkt>
     3b2:	e8bd 500f 	ldmia.w	sp!, {r0, r1, r2, r3, ip, lr}
     3b6:	4770      	bx	lr

000003b8 <FPB_Handler5>:
     3b8:	bf00      	nop
     3ba:	bf00      	nop
     3bc:	bf00      	nop
     3be:	bf00      	nop
     3c0:	e92d 500f 	stmdb	sp!, {r0, r1, r2, r3, ip, lr}
     3c4:	f003 f802 	bl	33cc <fpb_enable_callback>
     3c8:	4605      	mov	r5, r0
     3ca:	e8bd 500f 	ldmia.w	sp!, {r0, r1, r2, r3, ip, lr}
     3ce:	46af      	mov	pc, r5

000003d0 <set_return>:
     3d0:	468f      	mov	pc, r1
     3d2:	4770      	bx	lr

000003d4 <DebugMon_Handler>:
     3d4:	f01e 0f04 	tst.w	lr, #4
     3d8:	bf0c      	ite	eq
     3da:	f3ef 8008 	mrseq	r0, MSP
     3de:	f3ef 8009 	mrsne	r0, PSP
     3e2:	f003 ba9f 	b.w	3924 <leave_debug_monitor>
	...

000003e8 <Reset_Handler>:
     3e8:	4806      	ldr	r0, [pc, #24]	; (404 <CCM_AAR_IRQHandler+0x2>)
     3ea:	4780      	blx	r0
     3ec:	4806      	ldr	r0, [pc, #24]	; (408 <CCM_AAR_IRQHandler+0x6>)
     3ee:	4700      	bx	r0

000003f0 <NMI_Handler>:
     3f0:	e7fe      	b.n	3f0 <NMI_Handler>

000003f2 <HardFault_Handler>:
     3f2:	e7fe      	b.n	3f2 <HardFault_Handler>

000003f4 <MemoryManagement_Handler>:
     3f4:	e7fe      	b.n	3f4 <MemoryManagement_Handler>

000003f6 <BusFault_Handler>:
     3f6:	e7fe      	b.n	3f6 <BusFault_Handler>

000003f8 <UsageFault_Handler>:
     3f8:	e7fe      	b.n	3f8 <UsageFault_Handler>

000003fa <SVC_Handler>:
     3fa:	e7fe      	b.n	3fa <SVC_Handler>
     3fc:	e7fe      	b.n	3fc <SVC_Handler+0x2>

000003fe <PendSV_Handler>:
     3fe:	e7fe      	b.n	3fe <PendSV_Handler>

00000400 <SysTick_Handler>:
     400:	e7fe      	b.n	400 <SysTick_Handler>

00000402 <CCM_AAR_IRQHandler>:
     402:	e7fe      	b.n	402 <CCM_AAR_IRQHandler>
     404:	00000b05 	.word	0x00000b05
     408:	00000201 	.word	0x00000201

0000040c <__aeabi_uldivmod>:
     40c:	e92d 5ff0 	stmdb	sp!, {r4, r5, r6, r7, r8, r9, sl, fp, ip, lr}
     410:	4605      	mov	r5, r0
     412:	2000      	movs	r0, #0
     414:	4692      	mov	sl, r2
     416:	469b      	mov	fp, r3
     418:	4688      	mov	r8, r1
     41a:	4606      	mov	r6, r0
     41c:	4681      	mov	r9, r0
     41e:	2440      	movs	r4, #64	; 0x40
     420:	e01b      	b.n	45a <__aeabi_uldivmod+0x4e>
     422:	4628      	mov	r0, r5
     424:	4641      	mov	r1, r8
     426:	4647      	mov	r7, r8
     428:	4622      	mov	r2, r4
     42a:	f000 f82f 	bl	48c <__aeabi_llsr>
     42e:	4653      	mov	r3, sl
     430:	465a      	mov	r2, fp
     432:	1ac0      	subs	r0, r0, r3
     434:	4191      	sbcs	r1, r2
     436:	d310      	bcc.n	45a <__aeabi_uldivmod+0x4e>
     438:	4611      	mov	r1, r2
     43a:	4618      	mov	r0, r3
     43c:	4622      	mov	r2, r4
     43e:	f000 f816 	bl	46e <__aeabi_llsl>
     442:	1a2d      	subs	r5, r5, r0
     444:	eb67 0801 	sbc.w	r8, r7, r1
     448:	464f      	mov	r7, r9
     44a:	4622      	mov	r2, r4
     44c:	2001      	movs	r0, #1
     44e:	2100      	movs	r1, #0
     450:	f000 f80d 	bl	46e <__aeabi_llsl>
     454:	eb17 0900 	adds.w	r9, r7, r0
     458:	414e      	adcs	r6, r1
     45a:	1e20      	subs	r0, r4, #0
     45c:	f1a4 0401 	sub.w	r4, r4, #1
     460:	dcdf      	bgt.n	422 <__aeabi_uldivmod+0x16>
     462:	4648      	mov	r0, r9
     464:	4631      	mov	r1, r6
     466:	462a      	mov	r2, r5
     468:	4643      	mov	r3, r8
     46a:	e8bd 9ff0 	ldmia.w	sp!, {r4, r5, r6, r7, r8, r9, sl, fp, ip, pc}

0000046e <__aeabi_llsl>:
     46e:	2a20      	cmp	r2, #32
     470:	db04      	blt.n	47c <__aeabi_llsl+0xe>
     472:	3a20      	subs	r2, #32
     474:	fa00 f102 	lsl.w	r1, r0, r2
     478:	2000      	movs	r0, #0
     47a:	4770      	bx	lr
     47c:	4091      	lsls	r1, r2
     47e:	f1c2 0320 	rsb	r3, r2, #32
     482:	fa20 f303 	lsr.w	r3, r0, r3
     486:	4319      	orrs	r1, r3
     488:	4090      	lsls	r0, r2
     48a:	4770      	bx	lr

0000048c <__aeabi_llsr>:
     48c:	2a20      	cmp	r2, #32
     48e:	db04      	blt.n	49a <__aeabi_llsr+0xe>
     490:	3a20      	subs	r2, #32
     492:	fa21 f002 	lsr.w	r0, r1, r2
     496:	2100      	movs	r1, #0
     498:	4770      	bx	lr
     49a:	fa21 f302 	lsr.w	r3, r1, r2
     49e:	40d0      	lsrs	r0, r2
     4a0:	f1c2 0220 	rsb	r2, r2, #32
     4a4:	4091      	lsls	r1, r2
     4a6:	4308      	orrs	r0, r1
     4a8:	4619      	mov	r1, r3
     4aa:	4770      	bx	lr

000004ac <__aeabi_lasr>:
     4ac:	2a20      	cmp	r2, #32
     4ae:	db06      	blt.n	4be <__aeabi_lasr+0x12>
     4b0:	17cb      	asrs	r3, r1, #31
     4b2:	3a20      	subs	r2, #32
     4b4:	fa41 f002 	asr.w	r0, r1, r2
     4b8:	ea43 73e0 	orr.w	r3, r3, r0, asr #31
     4bc:	e006      	b.n	4cc <__aeabi_lasr+0x20>
     4be:	fa41 f302 	asr.w	r3, r1, r2
     4c2:	40d0      	lsrs	r0, r2
     4c4:	f1c2 0220 	rsb	r2, r2, #32
     4c8:	4091      	lsls	r1, r2
     4ca:	4308      	orrs	r0, r1
     4cc:	4619      	mov	r1, r3
     4ce:	4770      	bx	lr

000004d0 <__rt_ctype_table>:
     4d0:	4800      	ldr	r0, [pc, #0]	; (4d4 <__rt_ctype_table+0x4>)
     4d2:	4770      	bx	lr
     4d4:	00006210 	.word	0x00006210

000004d8 <__aeabi_memcpy>:
     4d8:	ea40 0301 	orr.w	r3, r0, r1
     4dc:	079b      	lsls	r3, r3, #30
     4de:	d003      	beq.n	4e8 <__aeabi_memcpy+0x10>
     4e0:	e009      	b.n	4f6 <__aeabi_memcpy+0x1e>
     4e2:	c908      	ldmia	r1!, {r3}
     4e4:	1f12      	subs	r2, r2, #4
     4e6:	c008      	stmia	r0!, {r3}
     4e8:	2a04      	cmp	r2, #4
     4ea:	d2fa      	bcs.n	4e2 <__aeabi_memcpy+0xa>
     4ec:	e003      	b.n	4f6 <__aeabi_memcpy+0x1e>
     4ee:	f811 3b01 	ldrb.w	r3, [r1], #1
     4f2:	f800 3b01 	strb.w	r3, [r0], #1
     4f6:	1e52      	subs	r2, r2, #1
     4f8:	d2f9      	bcs.n	4ee <__aeabi_memcpy+0x16>
     4fa:	4770      	bx	lr

000004fc <__aeabi_memset>:
     4fc:	b2d2      	uxtb	r2, r2
     4fe:	e001      	b.n	504 <__aeabi_memset+0x8>
     500:	f800 2b01 	strb.w	r2, [r0], #1
     504:	1e49      	subs	r1, r1, #1
     506:	d2fb      	bcs.n	500 <__aeabi_memset+0x4>
     508:	4770      	bx	lr

0000050a <__aeabi_memclr>:
     50a:	2200      	movs	r2, #0
     50c:	e7f6      	b.n	4fc <__aeabi_memset>

0000050e <_memset$wrapper>:
     50e:	b510      	push	{r4, lr}
     510:	4613      	mov	r3, r2
     512:	460a      	mov	r2, r1
     514:	4604      	mov	r4, r0
     516:	4619      	mov	r1, r3
     518:	f7ff fff0 	bl	4fc <__aeabi_memset>
     51c:	4620      	mov	r0, r4
     51e:	bd10      	pop	{r4, pc}

00000520 <strlen>:
     520:	1c42      	adds	r2, r0, #1
     522:	f810 1b01 	ldrb.w	r1, [r0], #1
     526:	2900      	cmp	r1, #0
     528:	d1fb      	bne.n	522 <strlen+0x2>
     52a:	1a80      	subs	r0, r0, r2
     52c:	4770      	bx	lr

0000052e <strcmp>:
     52e:	b510      	push	{r4, lr}
     530:	2200      	movs	r2, #0
     532:	e000      	b.n	536 <strcmp+0x8>
     534:	1c52      	adds	r2, r2, #1
     536:	5c83      	ldrb	r3, [r0, r2]
     538:	5c8c      	ldrb	r4, [r1, r2]
     53a:	42a3      	cmp	r3, r4
     53c:	d101      	bne.n	542 <strcmp+0x14>
     53e:	2b00      	cmp	r3, #0
     540:	d1f8      	bne.n	534 <strcmp+0x6>
     542:	b2d8      	uxtb	r0, r3
     544:	b2e1      	uxtb	r1, r4
     546:	1a40      	subs	r0, r0, r1
     548:	bd10      	pop	{r4, pc}

0000054a <strcpy>:
     54a:	4603      	mov	r3, r0
     54c:	f811 2b01 	ldrb.w	r2, [r1], #1
     550:	f800 2b01 	strb.w	r2, [r0], #1
     554:	2a00      	cmp	r2, #0
     556:	d1f9      	bne.n	54c <strcpy+0x2>
     558:	4618      	mov	r0, r3
     55a:	4770      	bx	lr

0000055c <calloc>:
     55c:	b510      	push	{r4, lr}
     55e:	4348      	muls	r0, r1
     560:	4604      	mov	r4, r0
     562:	f003 fbeb 	bl	3d3c <malloc>
     566:	2800      	cmp	r0, #0
     568:	d005      	beq.n	576 <calloc+0x1a>
     56a:	2100      	movs	r1, #0
     56c:	2c00      	cmp	r4, #0
     56e:	d002      	beq.n	576 <calloc+0x1a>
     570:	1e64      	subs	r4, r4, #1
     572:	5501      	strb	r1, [r0, r4]
     574:	e7fa      	b.n	56c <calloc+0x10>
     576:	bd10      	pop	{r4, pc}

00000578 <__aeabi_uidivmod>:
     578:	b530      	push	{r4, r5, lr}
     57a:	460b      	mov	r3, r1
     57c:	4601      	mov	r1, r0
     57e:	2000      	movs	r0, #0
     580:	2220      	movs	r2, #32
     582:	2401      	movs	r4, #1
     584:	e009      	b.n	59a <__aeabi_uidivmod+0x22>
     586:	fa21 f502 	lsr.w	r5, r1, r2
     58a:	429d      	cmp	r5, r3
     58c:	d305      	bcc.n	59a <__aeabi_uidivmod+0x22>
     58e:	fa03 f502 	lsl.w	r5, r3, r2
     592:	1b49      	subs	r1, r1, r5
     594:	fa04 f502 	lsl.w	r5, r4, r2
     598:	4428      	add	r0, r5
     59a:	1e15      	subs	r5, r2, #0
     59c:	f1a2 0201 	sub.w	r2, r2, #1
     5a0:	dcf1      	bgt.n	586 <__aeabi_uidivmod+0xe>
     5a2:	bd30      	pop	{r4, r5, pc}

000005a4 <__aeabi_dadd>:
     5a4:	e92d 4ffe 	stmdb	sp!, {r1, r2, r3, r4, r5, r6, r7, r8, r9, sl, fp, lr}
     5a8:	4680      	mov	r8, r0
     5aa:	ea81 0003 	eor.w	r0, r1, r3
     5ae:	0fc0      	lsrs	r0, r0, #31
     5b0:	460c      	mov	r4, r1
     5b2:	9000      	str	r0, [sp, #0]
     5b4:	f021 4100 	bic.w	r1, r1, #2147483648	; 0x80000000
     5b8:	f023 4500 	bic.w	r5, r3, #2147483648	; 0x80000000
     5bc:	ebb8 0002 	subs.w	r0, r8, r2
     5c0:	41a9      	sbcs	r1, r5
     5c2:	d205      	bcs.n	5d0 <__aeabi_dadd+0x2c>
     5c4:	4640      	mov	r0, r8
     5c6:	4621      	mov	r1, r4
     5c8:	4690      	mov	r8, r2
     5ca:	461c      	mov	r4, r3
     5cc:	460b      	mov	r3, r1
     5ce:	4602      	mov	r2, r0
     5d0:	f023 4000 	bic.w	r0, r3, #2147483648	; 0x80000000
     5d4:	4310      	orrs	r0, r2
     5d6:	d047      	beq.n	668 <__aeabi_dadd+0xc4>
     5d8:	0d27      	lsrs	r7, r4, #20
     5da:	f3c7 000a 	ubfx	r0, r7, #0, #11
     5de:	f3c3 510a 	ubfx	r1, r3, #20, #11
     5e2:	9002      	str	r0, [sp, #8]
     5e4:	1a40      	subs	r0, r0, r1
     5e6:	9001      	str	r0, [sp, #4]
     5e8:	2840      	cmp	r0, #64	; 0x40
     5ea:	da6b      	bge.n	6c4 <__aeabi_dadd+0x120>
     5ec:	f3c3 0013 	ubfx	r0, r3, #0, #20
     5f0:	f440 1b80 	orr.w	fp, r0, #1048576	; 0x100000
     5f4:	9800      	ldr	r0, [sp, #0]
     5f6:	4692      	mov	sl, r2
     5f8:	b120      	cbz	r0, 604 <__aeabi_dadd+0x60>
     5fa:	2300      	movs	r3, #0
     5fc:	ebd2 0a03 	rsbs	sl, r2, r3
     600:	eb63 0b0b 	sbc.w	fp, r3, fp
     604:	9801      	ldr	r0, [sp, #4]
     606:	4659      	mov	r1, fp
     608:	f1c0 0240 	rsb	r2, r0, #64	; 0x40
     60c:	4650      	mov	r0, sl
     60e:	f7ff ff2e 	bl	46e <__aeabi_llsl>
     612:	4606      	mov	r6, r0
     614:	460d      	mov	r5, r1
     616:	4650      	mov	r0, sl
     618:	4659      	mov	r1, fp
     61a:	9a01      	ldr	r2, [sp, #4]
     61c:	f7ff ff46 	bl	4ac <__aeabi_lasr>
     620:	eb10 0008 	adds.w	r0, r0, r8
     624:	4161      	adcs	r1, r4
     626:	2400      	movs	r4, #0
     628:	ea87 5211 	eor.w	r2, r7, r1, lsr #20
     62c:	ea84 73e7 	eor.w	r3, r4, r7, asr #31
     630:	431a      	orrs	r2, r3
     632:	d040      	beq.n	6b6 <__aeabi_dadd+0x112>
     634:	9a00      	ldr	r2, [sp, #0]
     636:	b362      	cbz	r2, 692 <__aeabi_dadd+0xee>
     638:	9a01      	ldr	r2, [sp, #4]
     63a:	2a01      	cmp	r2, #1
     63c:	ea4f 5207 	mov.w	r2, r7, lsl #20
     640:	dc15      	bgt.n	66e <__aeabi_dadd+0xca>
     642:	1b00      	subs	r0, r0, r4
     644:	eb61 0102 	sbc.w	r1, r1, r2
     648:	f04f 4200 	mov.w	r2, #2147483648	; 0x80000000
     64c:	ea02 5207 	and.w	r2, r2, r7, lsl #20
     650:	e9cd 4200 	strd	r4, r2, [sp]
     654:	1c00      	adds	r0, r0, #0
     656:	f541 1180 	adc.w	r1, r1, #1048576	; 0x100000
     65a:	4632      	mov	r2, r6
     65c:	462b      	mov	r3, r5
     65e:	f000 f97a 	bl	956 <_double_epilogue>
     662:	b003      	add	sp, #12
     664:	e8bd 8ff0 	ldmia.w	sp!, {r4, r5, r6, r7, r8, r9, sl, fp, pc}
     668:	4640      	mov	r0, r8
     66a:	4621      	mov	r1, r4
     66c:	e7f9      	b.n	662 <__aeabi_dadd+0xbe>
     66e:	1b00      	subs	r0, r0, r4
     670:	eb61 0102 	sbc.w	r1, r1, r2
     674:	1c00      	adds	r0, r0, #0
     676:	f541 1380 	adc.w	r3, r1, #1048576	; 0x100000
     67a:	1800      	adds	r0, r0, r0
     67c:	415b      	adcs	r3, r3
     67e:	1820      	adds	r0, r4, r0
     680:	f5a2 1700 	sub.w	r7, r2, #2097152	; 0x200000
     684:	eb47 0103 	adc.w	r1, r7, r3
     688:	ea40 70d5 	orr.w	r0, r0, r5, lsr #31
     68c:	19b6      	adds	r6, r6, r6
     68e:	416d      	adcs	r5, r5
     690:	e011      	b.n	6b6 <__aeabi_dadd+0x112>
     692:	086d      	lsrs	r5, r5, #1
     694:	ea4f 0636 	mov.w	r6, r6, rrx
     698:	ea45 75c0 	orr.w	r5, r5, r0, lsl #31
     69c:	ea4f 5207 	mov.w	r2, r7, lsl #20
     6a0:	1b00      	subs	r0, r0, r4
     6a2:	eb61 0102 	sbc.w	r1, r1, r2
     6a6:	1c00      	adds	r0, r0, #0
     6a8:	f541 1180 	adc.w	r1, r1, #1048576	; 0x100000
     6ac:	0849      	lsrs	r1, r1, #1
     6ae:	ea4f 0030 	mov.w	r0, r0, rrx
     6b2:	1900      	adds	r0, r0, r4
     6b4:	4151      	adcs	r1, r2
     6b6:	4632      	mov	r2, r6
     6b8:	462b      	mov	r3, r5
     6ba:	b003      	add	sp, #12
     6bc:	e8bd 4ff0 	ldmia.w	sp!, {r4, r5, r6, r7, r8, r9, sl, fp, lr}
     6c0:	f000 b93a 	b.w	938 <_double_round>
     6c4:	9800      	ldr	r0, [sp, #0]
     6c6:	2201      	movs	r2, #1
     6c8:	0040      	lsls	r0, r0, #1
     6ca:	2300      	movs	r3, #0
     6cc:	ebd0 0202 	rsbs	r2, r0, r2
     6d0:	eb63 73e0 	sbc.w	r3, r3, r0, asr #31
     6d4:	9800      	ldr	r0, [sp, #0]
     6d6:	4621      	mov	r1, r4
     6d8:	ea4f 74e0 	mov.w	r4, r0, asr #31
     6dc:	ebb8 0000 	subs.w	r0, r8, r0
     6e0:	eb61 0104 	sbc.w	r1, r1, r4
     6e4:	e7e9      	b.n	6ba <__aeabi_dadd+0x116>

000006e6 <__aeabi_dsub>:
     6e6:	f083 4300 	eor.w	r3, r3, #2147483648	; 0x80000000
     6ea:	e75b      	b.n	5a4 <__aeabi_dadd>

000006ec <__aeabi_drsub>:
     6ec:	f081 4100 	eor.w	r1, r1, #2147483648	; 0x80000000
     6f0:	e758      	b.n	5a4 <__aeabi_dadd>

000006f2 <__aeabi_dmul>:
     6f2:	e92d 4ffe 	stmdb	sp!, {r1, r2, r3, r4, r5, r6, r7, r8, r9, sl, fp, lr}
     6f6:	ea81 0403 	eor.w	r4, r1, r3
     6fa:	f004 4400 	and.w	r4, r4, #2147483648	; 0x80000000
     6fe:	f021 4100 	bic.w	r1, r1, #2147483648	; 0x80000000
     702:	9400      	str	r4, [sp, #0]
     704:	f04f 0b00 	mov.w	fp, #0
     708:	f023 4300 	bic.w	r3, r3, #2147483648	; 0x80000000
     70c:	ea50 0401 	orrs.w	r4, r0, r1
     710:	d05e      	beq.n	7d0 <__aeabi_dmul+0xde>
     712:	ea52 0403 	orrs.w	r4, r2, r3
     716:	d05b      	beq.n	7d0 <__aeabi_dmul+0xde>
     718:	f3c3 540a 	ubfx	r4, r3, #20, #11
     71c:	f3c1 550a 	ubfx	r5, r1, #20, #11
     720:	442c      	add	r4, r5
     722:	f2a4 34f3 	subw	r4, r4, #1011	; 0x3f3
     726:	9401      	str	r4, [sp, #4]
     728:	fba0 5402 	umull	r5, r4, r0, r2
     72c:	f3c1 0113 	ubfx	r1, r1, #0, #20
     730:	f441 1180 	orr.w	r1, r1, #1048576	; 0x100000
     734:	f3c3 0313 	ubfx	r3, r3, #0, #20
     738:	f443 1380 	orr.w	r3, r3, #1048576	; 0x100000
     73c:	fb01 4402 	mla	r4, r1, r2, r4
     740:	fb00 4e03 	mla	lr, r0, r3, r4
     744:	0a84      	lsrs	r4, r0, #10
     746:	0a97      	lsrs	r7, r2, #10
     748:	ea44 5481 	orr.w	r4, r4, r1, lsl #22
     74c:	ea47 5783 	orr.w	r7, r7, r3, lsl #22
     750:	fba4 6807 	umull	r6, r8, r4, r7
     754:	9502      	str	r5, [sp, #8]
     756:	0a8d      	lsrs	r5, r1, #10
     758:	fb05 8507 	mla	r5, r5, r7, r8
     75c:	ea4f 2c93 	mov.w	ip, r3, lsr #10
     760:	fb04 540c 	mla	r4, r4, ip, r5
     764:	0527      	lsls	r7, r4, #20
     766:	9d02      	ldr	r5, [sp, #8]
     768:	ea4f 5806 	mov.w	r8, r6, lsl #20
     76c:	ea47 3716 	orr.w	r7, r7, r6, lsr #12
     770:	ebb5 0508 	subs.w	r5, r5, r8
     774:	eb6e 0c07 	sbc.w	ip, lr, r7
     778:	0e87      	lsrs	r7, r0, #26
     77a:	0e92      	lsrs	r2, r2, #26
     77c:	ea47 1781 	orr.w	r7, r7, r1, lsl #6
     780:	ea42 1283 	orr.w	r2, r2, r3, lsl #6
     784:	fba7 0102 	umull	r0, r1, r7, r2
     788:	ebb6 010b 	subs.w	r1, r6, fp
     78c:	eb64 0400 	sbc.w	r4, r4, r0
     790:	0d2b      	lsrs	r3, r5, #20
     792:	ea43 330c 	orr.w	r3, r3, ip, lsl #12
     796:	185e      	adds	r6, r3, r1
     798:	eb44 501c 	adc.w	r0, r4, ip, lsr #20
     79c:	46da      	mov	sl, fp
     79e:	4651      	mov	r1, sl
     7a0:	fbe7 0102 	umlal	r0, r1, r7, r2
     7a4:	f3c5 0413 	ubfx	r4, r5, #0, #20
     7a8:	ea4f 330b 	mov.w	r3, fp, lsl #12
     7ac:	ea43 5314 	orr.w	r3, r3, r4, lsr #20
     7b0:	ea4f 3204 	mov.w	r2, r4, lsl #12
     7b4:	9c01      	ldr	r4, [sp, #4]
     7b6:	ea43 0306 	orr.w	r3, r3, r6
     7ba:	f1a4 040c 	sub.w	r4, r4, #12
     7be:	9402      	str	r4, [sp, #8]
     7c0:	9c00      	ldr	r4, [sp, #0]
     7c2:	e9cd b400 	strd	fp, r4, [sp]
     7c6:	f000 f8c6 	bl	956 <_double_epilogue>
     7ca:	b003      	add	sp, #12
     7cc:	e8bd 8ff0 	ldmia.w	sp!, {r4, r5, r6, r7, r8, r9, sl, fp, pc}
     7d0:	2000      	movs	r0, #0
     7d2:	4601      	mov	r1, r0
     7d4:	e7f9      	b.n	7ca <__aeabi_dmul+0xd8>

000007d6 <__aeabi_ddiv>:
     7d6:	e92d 4df0 	stmdb	sp!, {r4, r5, r6, r7, r8, sl, fp, lr}
     7da:	ea81 0403 	eor.w	r4, r1, r3
     7de:	f004 4b00 	and.w	fp, r4, #2147483648	; 0x80000000
     7e2:	f021 4500 	bic.w	r5, r1, #2147483648	; 0x80000000
     7e6:	4614      	mov	r4, r2
     7e8:	f04f 0a00 	mov.w	sl, #0
     7ec:	f023 4100 	bic.w	r1, r3, #2147483648	; 0x80000000
     7f0:	ea50 0205 	orrs.w	r2, r0, r5
     7f4:	d020      	beq.n	838 <__aeabi_ddiv+0x62>
     7f6:	ea54 0201 	orrs.w	r2, r4, r1
     7fa:	d01d      	beq.n	838 <__aeabi_ddiv+0x62>
     7fc:	f3c5 570a 	ubfx	r7, r5, #20, #11
     800:	4602      	mov	r2, r0
     802:	f3c5 0313 	ubfx	r3, r5, #0, #20
     806:	f3c1 0013 	ubfx	r0, r1, #0, #20
     80a:	f3c1 560a 	ubfx	r6, r1, #20, #11
     80e:	f440 1580 	orr.w	r5, r0, #1048576	; 0x100000
     812:	f443 1380 	orr.w	r3, r3, #1048576	; 0x100000
     816:	eba7 0806 	sub.w	r8, r7, r6
     81a:	1b10      	subs	r0, r2, r4
     81c:	46d6      	mov	lr, sl
     81e:	f208 38fd 	addw	r8, r8, #1021	; 0x3fd
     822:	eb73 0005 	sbcs.w	r0, r3, r5
     826:	d302      	bcc.n	82e <__aeabi_ddiv+0x58>
     828:	f108 0801 	add.w	r8, r8, #1
     82c:	e001      	b.n	832 <__aeabi_ddiv+0x5c>
     82e:	1892      	adds	r2, r2, r2
     830:	415b      	adcs	r3, r3
     832:	f1b8 0f00 	cmp.w	r8, #0
     836:	da03      	bge.n	840 <__aeabi_ddiv+0x6a>
     838:	2000      	movs	r0, #0
     83a:	4601      	mov	r1, r0
     83c:	e8bd 8df0 	ldmia.w	sp!, {r4, r5, r6, r7, r8, sl, fp, pc}
     840:	2000      	movs	r0, #0
     842:	f44f 1180 	mov.w	r1, #1048576	; 0x100000
     846:	4606      	mov	r6, r0
     848:	4684      	mov	ip, r0
     84a:	e00e      	b.n	86a <__aeabi_ddiv+0x94>
     84c:	1b17      	subs	r7, r2, r4
     84e:	eb73 0705 	sbcs.w	r7, r3, r5
     852:	d305      	bcc.n	860 <__aeabi_ddiv+0x8a>
     854:	1b12      	subs	r2, r2, r4
     856:	eb63 0305 	sbc.w	r3, r3, r5
     85a:	4306      	orrs	r6, r0
     85c:	ea4c 0c01 	orr.w	ip, ip, r1
     860:	0849      	lsrs	r1, r1, #1
     862:	ea4f 0030 	mov.w	r0, r0, rrx
     866:	1892      	adds	r2, r2, r2
     868:	415b      	adcs	r3, r3
     86a:	ea50 0701 	orrs.w	r7, r0, r1
     86e:	d1ed      	bne.n	84c <__aeabi_ddiv+0x76>
     870:	ea52 0003 	orrs.w	r0, r2, r3
     874:	d012      	beq.n	89c <__aeabi_ddiv+0xc6>
     876:	ea82 0004 	eor.w	r0, r2, r4
     87a:	ea83 0105 	eor.w	r1, r3, r5
     87e:	4308      	orrs	r0, r1
     880:	d005      	beq.n	88e <__aeabi_ddiv+0xb8>
     882:	1b10      	subs	r0, r2, r4
     884:	41ab      	sbcs	r3, r5
     886:	d206      	bcs.n	896 <__aeabi_ddiv+0xc0>
     888:	2201      	movs	r2, #1
     88a:	2300      	movs	r3, #0
     88c:	e006      	b.n	89c <__aeabi_ddiv+0xc6>
     88e:	2200      	movs	r2, #0
     890:	f04f 4300 	mov.w	r3, #2147483648	; 0x80000000
     894:	e002      	b.n	89c <__aeabi_ddiv+0xc6>
     896:	f06f 0201 	mvn.w	r2, #1
     89a:	1053      	asrs	r3, r2, #1
     89c:	eb1a 0006 	adds.w	r0, sl, r6
     8a0:	eb4c 5108 	adc.w	r1, ip, r8, lsl #20
     8a4:	eb10 000a 	adds.w	r0, r0, sl
     8a8:	eb41 010b 	adc.w	r1, r1, fp
     8ac:	e8bd 4df0 	ldmia.w	sp!, {r4, r5, r6, r7, r8, sl, fp, lr}
     8b0:	f000 b842 	b.w	938 <_double_round>

000008b4 <__aeabi_d2ulz>:
     8b4:	f3c1 520a 	ubfx	r2, r1, #20, #11
     8b8:	f3c1 0113 	ubfx	r1, r1, #0, #20
     8bc:	f240 33ff 	movw	r3, #1023	; 0x3ff
     8c0:	f441 1180 	orr.w	r1, r1, #1048576	; 0x100000
     8c4:	429a      	cmp	r2, r3
     8c6:	da02      	bge.n	8ce <__aeabi_d2ulz+0x1a>
     8c8:	2000      	movs	r0, #0
     8ca:	4601      	mov	r1, r0
     8cc:	4770      	bx	lr
     8ce:	f240 4333 	movw	r3, #1075	; 0x433
     8d2:	429a      	cmp	r2, r3
     8d4:	f2a2 4233 	subw	r2, r2, #1075	; 0x433
     8d8:	dc02      	bgt.n	8e0 <__aeabi_d2ulz+0x2c>
     8da:	4252      	negs	r2, r2
     8dc:	f7ff bdd6 	b.w	48c <__aeabi_llsr>
     8e0:	f7ff bdc5 	b.w	46e <__aeabi_llsl>

000008e4 <__aeabi_cdrcmple>:
     8e4:	b530      	push	{r4, r5, lr}
     8e6:	1e04      	subs	r4, r0, #0
     8e8:	f171 0400 	sbcs.w	r4, r1, #0
     8ec:	db04      	blt.n	8f8 <__aeabi_cdrcmple+0x14>
     8ee:	f04f 4400 	mov.w	r4, #2147483648	; 0x80000000
     8f2:	4240      	negs	r0, r0
     8f4:	eb64 0101 	sbc.w	r1, r4, r1
     8f8:	1e14      	subs	r4, r2, #0
     8fa:	f173 0400 	sbcs.w	r4, r3, #0
     8fe:	db05      	blt.n	90c <__aeabi_cdrcmple+0x28>
     900:	461c      	mov	r4, r3
     902:	f04f 4300 	mov.w	r3, #2147483648	; 0x80000000
     906:	4252      	negs	r2, r2
     908:	eb63 0304 	sbc.w	r3, r3, r4
     90c:	4299      	cmp	r1, r3
     90e:	bf08      	it	eq
     910:	4290      	cmpeq	r0, r2
     912:	bd30      	pop	{r4, r5, pc}

00000914 <__scatterload>:
     914:	4c06      	ldr	r4, [pc, #24]	; (930 <__scatterload+0x1c>)
     916:	4d07      	ldr	r5, [pc, #28]	; (934 <__scatterload+0x20>)
     918:	e006      	b.n	928 <__scatterload+0x14>
     91a:	68e0      	ldr	r0, [r4, #12]
     91c:	f040 0301 	orr.w	r3, r0, #1
     920:	e894 0007 	ldmia.w	r4, {r0, r1, r2}
     924:	4798      	blx	r3
     926:	3410      	adds	r4, #16
     928:	42ac      	cmp	r4, r5
     92a:	d3f6      	bcc.n	91a <__scatterload+0x6>
     92c:	f7ff fc6c 	bl	208 <__main_after_scatterload>
     930:	00006468 	.word	0x00006468
     934:	00006488 	.word	0x00006488

00000938 <_double_round>:
     938:	b510      	push	{r4, lr}
     93a:	1e14      	subs	r4, r2, #0
     93c:	f173 0400 	sbcs.w	r4, r3, #0
     940:	da08      	bge.n	954 <_double_round+0x1c>
     942:	1c40      	adds	r0, r0, #1
     944:	f141 0100 	adc.w	r1, r1, #0
     948:	1892      	adds	r2, r2, r2
     94a:	415b      	adcs	r3, r3
     94c:	431a      	orrs	r2, r3
     94e:	d101      	bne.n	954 <_double_round+0x1c>
     950:	f020 0001 	bic.w	r0, r0, #1
     954:	bd10      	pop	{r4, pc}

00000956 <_double_epilogue>:
     956:	e92d 4df0 	stmdb	sp!, {r4, r5, r6, r7, r8, sl, fp, lr}
     95a:	4692      	mov	sl, r2
     95c:	469b      	mov	fp, r3
     95e:	b111      	cbz	r1, 966 <_double_epilogue+0x10>
     960:	fab1 f281 	clz	r2, r1
     964:	e002      	b.n	96c <_double_epilogue+0x16>
     966:	fab0 f280 	clz	r2, r0
     96a:	3220      	adds	r2, #32
     96c:	4690      	mov	r8, r2
     96e:	f7ff fd7e 	bl	46e <__aeabi_llsl>
     972:	4604      	mov	r4, r0
     974:	460f      	mov	r7, r1
     976:	ea40 000a 	orr.w	r0, r0, sl
     97a:	ea41 010b 	orr.w	r1, r1, fp
     97e:	4653      	mov	r3, sl
     980:	465a      	mov	r2, fp
     982:	4308      	orrs	r0, r1
     984:	d013      	beq.n	9ae <_double_epilogue+0x58>
     986:	4611      	mov	r1, r2
     988:	ea53 0001 	orrs.w	r0, r3, r1
     98c:	d019      	beq.n	9c2 <_double_epilogue+0x6c>
     98e:	f1c8 0240 	rsb	r2, r8, #64	; 0x40
     992:	4650      	mov	r0, sl
     994:	f7ff fd7a 	bl	48c <__aeabi_llsr>
     998:	4605      	mov	r5, r0
     99a:	460e      	mov	r6, r1
     99c:	4650      	mov	r0, sl
     99e:	4659      	mov	r1, fp
     9a0:	4642      	mov	r2, r8
     9a2:	f7ff fd64 	bl	46e <__aeabi_llsl>
     9a6:	4308      	orrs	r0, r1
     9a8:	d005      	beq.n	9b6 <_double_epilogue+0x60>
     9aa:	2001      	movs	r0, #1
     9ac:	e004      	b.n	9b8 <_double_epilogue+0x62>
     9ae:	4620      	mov	r0, r4
     9b0:	4639      	mov	r1, r7
     9b2:	e8bd 8df0 	ldmia.w	sp!, {r4, r5, r6, r7, r8, sl, fp, pc}
     9b6:	2000      	movs	r0, #0
     9b8:	4305      	orrs	r5, r0
     9ba:	ea46 76e0 	orr.w	r6, r6, r0, asr #31
     9be:	432c      	orrs	r4, r5
     9c0:	4337      	orrs	r7, r6
     9c2:	980a      	ldr	r0, [sp, #40]	; 0x28
     9c4:	0563      	lsls	r3, r4, #21
     9c6:	0ae4      	lsrs	r4, r4, #11
     9c8:	eba0 0008 	sub.w	r0, r0, r8
     9cc:	2200      	movs	r2, #0
     9ce:	0afd      	lsrs	r5, r7, #11
     9d0:	ea44 5447 	orr.w	r4, r4, r7, lsl #21
     9d4:	300a      	adds	r0, #10
     9d6:	d502      	bpl.n	9de <_double_epilogue+0x88>
     9d8:	2000      	movs	r0, #0
     9da:	4601      	mov	r1, r0
     9dc:	e7e9      	b.n	9b2 <_double_epilogue+0x5c>
     9de:	0501      	lsls	r1, r0, #20
     9e0:	1910      	adds	r0, r2, r4
     9e2:	4169      	adcs	r1, r5
     9e4:	e9dd 4508 	ldrd	r4, r5, [sp, #32]
     9e8:	1900      	adds	r0, r0, r4
     9ea:	4169      	adcs	r1, r5
     9ec:	e8bd 4df0 	ldmia.w	sp!, {r4, r5, r6, r7, r8, sl, fp, lr}
     9f0:	e7a2      	b.n	938 <_double_round>

000009f2 <__decompress1>:
     9f2:	b570      	push	{r4, r5, r6, lr}
     9f4:	188c      	adds	r4, r1, r2
     9f6:	f810 5b01 	ldrb.w	r5, [r0], #1
     9fa:	f015 0307 	ands.w	r3, r5, #7
     9fe:	d101      	bne.n	a04 <__decompress1+0x12>
     a00:	f810 3b01 	ldrb.w	r3, [r0], #1
     a04:	112a      	asrs	r2, r5, #4
     a06:	d106      	bne.n	a16 <__decompress1+0x24>
     a08:	f810 2b01 	ldrb.w	r2, [r0], #1
     a0c:	e003      	b.n	a16 <__decompress1+0x24>
     a0e:	f810 6b01 	ldrb.w	r6, [r0], #1
     a12:	f801 6b01 	strb.w	r6, [r1], #1
     a16:	1e5b      	subs	r3, r3, #1
     a18:	d1f9      	bne.n	a0e <__decompress1+0x1c>
     a1a:	072b      	lsls	r3, r5, #28
     a1c:	d405      	bmi.n	a2a <__decompress1+0x38>
     a1e:	2300      	movs	r3, #0
     a20:	1e52      	subs	r2, r2, #1
     a22:	d40d      	bmi.n	a40 <__decompress1+0x4e>
     a24:	f801 3b01 	strb.w	r3, [r1], #1
     a28:	e7fa      	b.n	a20 <__decompress1+0x2e>
     a2a:	f810 3b01 	ldrb.w	r3, [r0], #1
     a2e:	1acb      	subs	r3, r1, r3
     a30:	1c92      	adds	r2, r2, #2
     a32:	e003      	b.n	a3c <__decompress1+0x4a>
     a34:	f813 5b01 	ldrb.w	r5, [r3], #1
     a38:	f801 5b01 	strb.w	r5, [r1], #1
     a3c:	1e52      	subs	r2, r2, #1
     a3e:	d5f9      	bpl.n	a34 <__decompress1+0x42>
     a40:	42a1      	cmp	r1, r4
     a42:	d3d8      	bcc.n	9f6 <__decompress1+0x4>
     a44:	2000      	movs	r0, #0
     a46:	bd70      	pop	{r4, r5, r6, pc}

00000a48 <RawBuggyFunc>:
     a48:	b510      	push	{r4, lr}
     a4a:	a004      	add	r0, pc, #16	; (adr r0, a5c <RawBuggyFunc+0x14>)
     a4c:	f001 fb1b 	bl	2086 <debug_log>
     a50:	e8bd 4010 	ldmia.w	sp!, {r4, lr}
     a54:	a006      	add	r0, pc, #24	; (adr r0, a70 <RawBuggyFunc+0x28>)
     a56:	f001 bb16 	b.w	2086 <debug_log>
     a5a:	0000      	.short	0x0000
     a5c:	65746e65 	.word	0x65746e65
     a60:	61522072 	.word	0x61522072
     a64:	67754277 	.word	0x67754277
     a68:	75467967 	.word	0x75467967
     a6c:	000a636e 	.word	0x000a636e
     a70:	74697865 	.word	0x74697865
     a74:	77615220 	.word	0x77615220
     a78:	67677542 	.word	0x67677542
     a7c:	6e754679 	.word	0x6e754679
     a80:	00000a63 	.word	0x00000a63

00000a84 <SEGGER_RTT_Init>:
     a84:	f000 b928 	b.w	cd8 <_DoInit>

00000a88 <SEGGER_RTT_WriteNoLock>:
     a88:	b570      	push	{r4, r5, r6, lr}
     a8a:	460e      	mov	r6, r1
     a8c:	4614      	mov	r4, r2
     a8e:	4918      	ldr	r1, [pc, #96]	; (af0 <SEGGER_RTT_WriteNoLock+0x68>)
     a90:	eb00 0040 	add.w	r0, r0, r0, lsl #1
     a94:	eb01 05c0 	add.w	r5, r1, r0, lsl #3
     a98:	3518      	adds	r5, #24
     a9a:	6968      	ldr	r0, [r5, #20]
     a9c:	2800      	cmp	r0, #0
     a9e:	d006      	beq.n	aae <SEGGER_RTT_WriteNoLock+0x26>
     aa0:	2801      	cmp	r0, #1
     aa2:	d011      	beq.n	ac8 <SEGGER_RTT_WriteNoLock+0x40>
     aa4:	2802      	cmp	r0, #2
     aa6:	d01b      	beq.n	ae0 <SEGGER_RTT_WriteNoLock+0x58>
     aa8:	2400      	movs	r4, #0
     aaa:	4620      	mov	r0, r4
     aac:	bd70      	pop	{r4, r5, r6, pc}
     aae:	4628      	mov	r0, r5
     ab0:	f000 f946 	bl	d40 <_GetAvailWriteSpace>
     ab4:	42a0      	cmp	r0, r4
     ab6:	d201      	bcs.n	abc <SEGGER_RTT_WriteNoLock+0x34>
     ab8:	2400      	movs	r4, #0
     aba:	e7f6      	b.n	aaa <SEGGER_RTT_WriteNoLock+0x22>
     abc:	4622      	mov	r2, r4
     abe:	4631      	mov	r1, r6
     ac0:	4628      	mov	r0, r5
     ac2:	f000 f977 	bl	db4 <_WriteNoCheck>
     ac6:	e7f0      	b.n	aaa <SEGGER_RTT_WriteNoLock+0x22>
     ac8:	4628      	mov	r0, r5
     aca:	f000 f939 	bl	d40 <_GetAvailWriteSpace>
     ace:	42a0      	cmp	r0, r4
     ad0:	d200      	bcs.n	ad4 <SEGGER_RTT_WriteNoLock+0x4c>
     ad2:	4604      	mov	r4, r0
     ad4:	4622      	mov	r2, r4
     ad6:	4631      	mov	r1, r6
     ad8:	4628      	mov	r0, r5
     ada:	f000 f96b 	bl	db4 <_WriteNoCheck>
     ade:	e7e4      	b.n	aaa <SEGGER_RTT_WriteNoLock+0x22>
     ae0:	4622      	mov	r2, r4
     ae2:	4631      	mov	r1, r6
     ae4:	4628      	mov	r0, r5
     ae6:	f000 f937 	bl	d58 <_WriteBlocking>
     aea:	4604      	mov	r4, r0
     aec:	e7dd      	b.n	aaa <SEGGER_RTT_WriteNoLock+0x22>
     aee:	0000      	.short	0x0000
     af0:	20000c34 	.word	0x20000c34

00000af4 <SystemCoreClockUpdate>:
     af4:	4902      	ldr	r1, [pc, #8]	; (b00 <SystemCoreClockUpdate+0xc>)
     af6:	4801      	ldr	r0, [pc, #4]	; (afc <SystemCoreClockUpdate+0x8>)
     af8:	6008      	str	r0, [r1, #0]
     afa:	4770      	bx	lr
     afc:	03d09000 	.word	0x03d09000
     b00:	200003fc 	.word	0x200003fc

00000b04 <SystemInit>:
     b04:	b570      	push	{r4, r5, r6, lr}
     b06:	f002 fbc2 	bl	328e <errata_36>
     b0a:	2400      	movs	r4, #0
     b0c:	b120      	cbz	r0, b18 <SystemInit+0x14>
     b0e:	4860      	ldr	r0, [pc, #384]	; (c90 <SystemInit+0x18c>)
     b10:	6004      	str	r4, [r0, #0]
     b12:	6044      	str	r4, [r0, #4]
     b14:	485f      	ldr	r0, [pc, #380]	; (c94 <SystemInit+0x190>)
     b16:	6004      	str	r4, [r0, #0]
     b18:	f002 fbd2 	bl	32c0 <errata_66>
     b1c:	2800      	cmp	r0, #0
     b1e:	d055      	beq.n	bcc <SystemInit+0xc8>
     b20:	485d      	ldr	r0, [pc, #372]	; (c98 <SystemInit+0x194>)
     b22:	6800      	ldr	r0, [r0, #0]
     b24:	495d      	ldr	r1, [pc, #372]	; (c9c <SystemInit+0x198>)
     b26:	6008      	str	r0, [r1, #0]
     b28:	485b      	ldr	r0, [pc, #364]	; (c98 <SystemInit+0x194>)
     b2a:	1d00      	adds	r0, r0, #4
     b2c:	6800      	ldr	r0, [r0, #0]
     b2e:	1d09      	adds	r1, r1, #4
     b30:	6008      	str	r0, [r1, #0]
     b32:	4859      	ldr	r0, [pc, #356]	; (c98 <SystemInit+0x194>)
     b34:	3008      	adds	r0, #8
     b36:	6800      	ldr	r0, [r0, #0]
     b38:	1d09      	adds	r1, r1, #4
     b3a:	6008      	str	r0, [r1, #0]
     b3c:	4856      	ldr	r0, [pc, #344]	; (c98 <SystemInit+0x194>)
     b3e:	300c      	adds	r0, #12
     b40:	6800      	ldr	r0, [r0, #0]
     b42:	1d09      	adds	r1, r1, #4
     b44:	6008      	str	r0, [r1, #0]
     b46:	4854      	ldr	r0, [pc, #336]	; (c98 <SystemInit+0x194>)
     b48:	3010      	adds	r0, #16
     b4a:	6800      	ldr	r0, [r0, #0]
     b4c:	1d09      	adds	r1, r1, #4
     b4e:	6008      	str	r0, [r1, #0]
     b50:	4851      	ldr	r0, [pc, #324]	; (c98 <SystemInit+0x194>)
     b52:	3014      	adds	r0, #20
     b54:	6800      	ldr	r0, [r0, #0]
     b56:	1d09      	adds	r1, r1, #4
     b58:	6008      	str	r0, [r1, #0]
     b5a:	484f      	ldr	r0, [pc, #316]	; (c98 <SystemInit+0x194>)
     b5c:	3018      	adds	r0, #24
     b5e:	6800      	ldr	r0, [r0, #0]
     b60:	494e      	ldr	r1, [pc, #312]	; (c9c <SystemInit+0x198>)
     b62:	3120      	adds	r1, #32
     b64:	6008      	str	r0, [r1, #0]
     b66:	484c      	ldr	r0, [pc, #304]	; (c98 <SystemInit+0x194>)
     b68:	301c      	adds	r0, #28
     b6a:	6800      	ldr	r0, [r0, #0]
     b6c:	1d09      	adds	r1, r1, #4
     b6e:	6008      	str	r0, [r1, #0]
     b70:	4849      	ldr	r0, [pc, #292]	; (c98 <SystemInit+0x194>)
     b72:	3020      	adds	r0, #32
     b74:	6800      	ldr	r0, [r0, #0]
     b76:	1d09      	adds	r1, r1, #4
     b78:	6008      	str	r0, [r1, #0]
     b7a:	4847      	ldr	r0, [pc, #284]	; (c98 <SystemInit+0x194>)
     b7c:	3024      	adds	r0, #36	; 0x24
     b7e:	6800      	ldr	r0, [r0, #0]
     b80:	1d09      	adds	r1, r1, #4
     b82:	6008      	str	r0, [r1, #0]
     b84:	4844      	ldr	r0, [pc, #272]	; (c98 <SystemInit+0x194>)
     b86:	3028      	adds	r0, #40	; 0x28
     b88:	6800      	ldr	r0, [r0, #0]
     b8a:	1d09      	adds	r1, r1, #4
     b8c:	6008      	str	r0, [r1, #0]
     b8e:	4842      	ldr	r0, [pc, #264]	; (c98 <SystemInit+0x194>)
     b90:	302c      	adds	r0, #44	; 0x2c
     b92:	6800      	ldr	r0, [r0, #0]
     b94:	1d09      	adds	r1, r1, #4
     b96:	6008      	str	r0, [r1, #0]
     b98:	483f      	ldr	r0, [pc, #252]	; (c98 <SystemInit+0x194>)
     b9a:	3030      	adds	r0, #48	; 0x30
     b9c:	6800      	ldr	r0, [r0, #0]
     b9e:	493f      	ldr	r1, [pc, #252]	; (c9c <SystemInit+0x198>)
     ba0:	3140      	adds	r1, #64	; 0x40
     ba2:	6008      	str	r0, [r1, #0]
     ba4:	483c      	ldr	r0, [pc, #240]	; (c98 <SystemInit+0x194>)
     ba6:	3034      	adds	r0, #52	; 0x34
     ba8:	6800      	ldr	r0, [r0, #0]
     baa:	1d09      	adds	r1, r1, #4
     bac:	6008      	str	r0, [r1, #0]
     bae:	483a      	ldr	r0, [pc, #232]	; (c98 <SystemInit+0x194>)
     bb0:	3038      	adds	r0, #56	; 0x38
     bb2:	6800      	ldr	r0, [r0, #0]
     bb4:	1d09      	adds	r1, r1, #4
     bb6:	6008      	str	r0, [r1, #0]
     bb8:	4837      	ldr	r0, [pc, #220]	; (c98 <SystemInit+0x194>)
     bba:	303c      	adds	r0, #60	; 0x3c
     bbc:	6800      	ldr	r0, [r0, #0]
     bbe:	1d09      	adds	r1, r1, #4
     bc0:	6008      	str	r0, [r1, #0]
     bc2:	4835      	ldr	r0, [pc, #212]	; (c98 <SystemInit+0x194>)
     bc4:	3040      	adds	r0, #64	; 0x40
     bc6:	6800      	ldr	r0, [r0, #0]
     bc8:	1d09      	adds	r1, r1, #4
     bca:	6008      	str	r0, [r1, #0]
     bcc:	f002 fb91 	bl	32f2 <errata_98>
     bd0:	b110      	cbz	r0, bd8 <SystemInit+0xd4>
     bd2:	4934      	ldr	r1, [pc, #208]	; (ca4 <SystemInit+0x1a0>)
     bd4:	4832      	ldr	r0, [pc, #200]	; (ca0 <SystemInit+0x19c>)
     bd6:	6008      	str	r0, [r1, #0]
     bd8:	f002 fb19 	bl	320e <errata_103>
     bdc:	b110      	cbz	r0, be4 <SystemInit+0xe0>
     bde:	4932      	ldr	r1, [pc, #200]	; (ca8 <SystemInit+0x1a4>)
     be0:	20fb      	movs	r0, #251	; 0xfb
     be2:	6008      	str	r0, [r1, #0]
     be4:	f002 fb20 	bl	3228 <errata_115>
     be8:	b130      	cbz	r0, bf8 <SystemInit+0xf4>
     bea:	4830      	ldr	r0, [pc, #192]	; (cac <SystemInit+0x1a8>)
     bec:	7802      	ldrb	r2, [r0, #0]
     bee:	4830      	ldr	r0, [pc, #192]	; (cb0 <SystemInit+0x1ac>)
     bf0:	6801      	ldr	r1, [r0, #0]
     bf2:	f362 0103 	bfi	r1, r2, #0, #4
     bf6:	6001      	str	r1, [r0, #0]
     bf8:	f002 fb23 	bl	3242 <errata_120>
     bfc:	b118      	cbz	r0, c06 <SystemInit+0x102>
     bfe:	492d      	ldr	r1, [pc, #180]	; (cb4 <SystemInit+0x1b0>)
     c00:	f44f 7000 	mov.w	r0, #512	; 0x200
     c04:	6008      	str	r0, [r1, #0]
     c06:	f002 fb29 	bl	325c <errata_136>
     c0a:	b130      	cbz	r0, c1a <SystemInit+0x116>
     c0c:	482a      	ldr	r0, [pc, #168]	; (cb8 <SystemInit+0x1b4>)
     c0e:	6801      	ldr	r1, [r0, #0]
     c10:	07c9      	lsls	r1, r1, #31
     c12:	d002      	beq.n	c1a <SystemInit+0x116>
     c14:	f06f 0101 	mvn.w	r1, #1
     c18:	6001      	str	r1, [r0, #0]
     c1a:	4828      	ldr	r0, [pc, #160]	; (cbc <SystemInit+0x1b8>)
     c1c:	6801      	ldr	r1, [r0, #0]
     c1e:	f441 0170 	orr.w	r1, r1, #15728640	; 0xf00000
     c22:	6001      	str	r1, [r0, #0]
     c24:	f3bf 8f4f 	dsb	sy
     c28:	f3bf 8f6f 	isb	sy
     c2c:	f04f 2210 	mov.w	r2, #268439552	; 0x10001000
     c30:	f8d2 0200 	ldr.w	r0, [r2, #512]	; 0x200
     c34:	2800      	cmp	r0, #0
     c36:	db03      	blt.n	c40 <SystemInit+0x13c>
     c38:	f8d2 0204 	ldr.w	r0, [r2, #516]	; 0x204
     c3c:	2800      	cmp	r0, #0
     c3e:	da23      	bge.n	c88 <SystemInit+0x184>
     c40:	4b1f      	ldr	r3, [pc, #124]	; (cc0 <SystemInit+0x1bc>)
     c42:	2001      	movs	r0, #1
     c44:	6018      	str	r0, [r3, #0]
     c46:	481f      	ldr	r0, [pc, #124]	; (cc4 <SystemInit+0x1c0>)
     c48:	6801      	ldr	r1, [r0, #0]
     c4a:	2900      	cmp	r1, #0
     c4c:	d0fc      	beq.n	c48 <SystemInit+0x144>
     c4e:	2512      	movs	r5, #18
     c50:	f8c2 5200 	str.w	r5, [r2, #512]	; 0x200
     c54:	6801      	ldr	r1, [r0, #0]
     c56:	2900      	cmp	r1, #0
     c58:	d0fc      	beq.n	c54 <SystemInit+0x150>
     c5a:	f8c2 5204 	str.w	r5, [r2, #516]	; 0x204
     c5e:	6801      	ldr	r1, [r0, #0]
     c60:	2900      	cmp	r1, #0
     c62:	d0fc      	beq.n	c5e <SystemInit+0x15a>
     c64:	601c      	str	r4, [r3, #0]
     c66:	6801      	ldr	r1, [r0, #0]
     c68:	2900      	cmp	r1, #0
     c6a:	d0fc      	beq.n	c66 <SystemInit+0x162>
     c6c:	f3bf 8f4f 	dsb	sy
     c70:	4812      	ldr	r0, [pc, #72]	; (cbc <SystemInit+0x1b8>)
     c72:	387c      	subs	r0, #124	; 0x7c
     c74:	6801      	ldr	r1, [r0, #0]
     c76:	4a14      	ldr	r2, [pc, #80]	; (cc8 <SystemInit+0x1c4>)
     c78:	f401 61e0 	and.w	r1, r1, #1792	; 0x700
     c7c:	4311      	orrs	r1, r2
     c7e:	6001      	str	r1, [r0, #0]
     c80:	f3bf 8f4f 	dsb	sy
     c84:	bf00      	nop
     c86:	e7fd      	b.n	c84 <SystemInit+0x180>
     c88:	e8bd 4070 	ldmia.w	sp!, {r4, r5, r6, lr}
     c8c:	f7ff bf32 	b.w	af4 <SystemCoreClockUpdate>
     c90:	4000010c 	.word	0x4000010c
     c94:	40000538 	.word	0x40000538
     c98:	10000404 	.word	0x10000404
     c9c:	4000c520 	.word	0x4000c520
     ca0:	00038148 	.word	0x00038148
     ca4:	4000568c 	.word	0x4000568c
     ca8:	4000f518 	.word	0x4000f518
     cac:	10000258 	.word	0x10000258
     cb0:	40000ee4 	.word	0x40000ee4
     cb4:	40029640 	.word	0x40029640
     cb8:	40000400 	.word	0x40000400
     cbc:	e000ed88 	.word	0xe000ed88
     cc0:	4001e504 	.word	0x4001e504
     cc4:	4001e400 	.word	0x4001e400
     cc8:	05fa0004 	.word	0x05fa0004

00000ccc <UARTE0_UART0_IRQHandler>:
     ccc:	4801      	ldr	r0, [pc, #4]	; (cd4 <UARTE0_UART0_IRQHandler+0x8>)
     cce:	6800      	ldr	r0, [r0, #0]
     cd0:	4700      	bx	r0
     cd2:	0000      	.short	0x0000
     cd4:	20000014 	.word	0x20000014

00000cd8 <_DoInit>:
     cd8:	b510      	push	{r4, lr}
     cda:	4c12      	ldr	r4, [pc, #72]	; (d24 <_DoInit+0x4c>)
     cdc:	2002      	movs	r0, #2
     cde:	6120      	str	r0, [r4, #16]
     ce0:	6160      	str	r0, [r4, #20]
     ce2:	a011      	add	r0, pc, #68	; (adr r0, d28 <_DoInit+0x50>)
     ce4:	61a0      	str	r0, [r4, #24]
     ce6:	f104 0078 	add.w	r0, r4, #120	; 0x78
     cea:	61e0      	str	r0, [r4, #28]
     cec:	f44f 7000 	mov.w	r0, #512	; 0x200
     cf0:	6220      	str	r0, [r4, #32]
     cf2:	2100      	movs	r1, #0
     cf4:	62a1      	str	r1, [r4, #40]	; 0x28
     cf6:	6261      	str	r1, [r4, #36]	; 0x24
     cf8:	62e1      	str	r1, [r4, #44]	; 0x2c
     cfa:	a00b      	add	r0, pc, #44	; (adr r0, d28 <_DoInit+0x50>)
     cfc:	64a0      	str	r0, [r4, #72]	; 0x48
     cfe:	f504 701e 	add.w	r0, r4, #632	; 0x278
     d02:	64e0      	str	r0, [r4, #76]	; 0x4c
     d04:	2010      	movs	r0, #16
     d06:	6520      	str	r0, [r4, #80]	; 0x50
     d08:	65a1      	str	r1, [r4, #88]	; 0x58
     d0a:	6561      	str	r1, [r4, #84]	; 0x54
     d0c:	65e1      	str	r1, [r4, #92]	; 0x5c
     d0e:	a109      	add	r1, pc, #36	; (adr r1, d34 <_DoInit+0x5c>)
     d10:	1de0      	adds	r0, r4, #7
     d12:	f7ff fc1a 	bl	54a <strcpy>
     d16:	a108      	add	r1, pc, #32	; (adr r1, d38 <_DoInit+0x60>)
     d18:	4620      	mov	r0, r4
     d1a:	f7ff fc16 	bl	54a <strcpy>
     d1e:	2020      	movs	r0, #32
     d20:	71a0      	strb	r0, [r4, #6]
     d22:	bd10      	pop	{r4, pc}
     d24:	20000c34 	.word	0x20000c34
     d28:	6d726554 	.word	0x6d726554
     d2c:	6c616e69 	.word	0x6c616e69
     d30:	00000000 	.word	0x00000000
     d34:	00545452 	.word	0x00545452
     d38:	47474553 	.word	0x47474553
     d3c:	00005245 	.word	0x00005245

00000d40 <_GetAvailWriteSpace>:
     d40:	6901      	ldr	r1, [r0, #16]
     d42:	68c2      	ldr	r2, [r0, #12]
     d44:	4291      	cmp	r1, r2
     d46:	d804      	bhi.n	d52 <_GetAvailWriteSpace+0x12>
     d48:	6880      	ldr	r0, [r0, #8]
     d4a:	1a80      	subs	r0, r0, r2
     d4c:	4408      	add	r0, r1
     d4e:	1e40      	subs	r0, r0, #1
     d50:	4770      	bx	lr
     d52:	1a88      	subs	r0, r1, r2
     d54:	1e40      	subs	r0, r0, #1
     d56:	4770      	bx	lr

00000d58 <_WriteBlocking>:
     d58:	e92d 47f0 	stmdb	sp!, {r4, r5, r6, r7, r8, r9, sl, lr}
     d5c:	4605      	mov	r5, r0
     d5e:	4689      	mov	r9, r1
     d60:	4617      	mov	r7, r2
     d62:	f04f 0800 	mov.w	r8, #0
     d66:	68ec      	ldr	r4, [r5, #12]
     d68:	6928      	ldr	r0, [r5, #16]
     d6a:	42a0      	cmp	r0, r4
     d6c:	d902      	bls.n	d74 <_WriteBlocking+0x1c>
     d6e:	1b06      	subs	r6, r0, r4
     d70:	1e76      	subs	r6, r6, #1
     d72:	e003      	b.n	d7c <_WriteBlocking+0x24>
     d74:	68a9      	ldr	r1, [r5, #8]
     d76:	1a20      	subs	r0, r4, r0
     d78:	1a0e      	subs	r6, r1, r0
     d7a:	1e76      	subs	r6, r6, #1
     d7c:	68a8      	ldr	r0, [r5, #8]
     d7e:	1b00      	subs	r0, r0, r4
     d80:	42b0      	cmp	r0, r6
     d82:	d800      	bhi.n	d86 <_WriteBlocking+0x2e>
     d84:	4606      	mov	r6, r0
     d86:	42be      	cmp	r6, r7
     d88:	d300      	bcc.n	d8c <_WriteBlocking+0x34>
     d8a:	463e      	mov	r6, r7
     d8c:	6868      	ldr	r0, [r5, #4]
     d8e:	4632      	mov	r2, r6
     d90:	4420      	add	r0, r4
     d92:	4649      	mov	r1, r9
     d94:	f7ff fba0 	bl	4d8 <__aeabi_memcpy>
     d98:	44b0      	add	r8, r6
     d9a:	44b1      	add	r9, r6
     d9c:	1bbf      	subs	r7, r7, r6
     d9e:	4434      	add	r4, r6
     da0:	68a8      	ldr	r0, [r5, #8]
     da2:	42a0      	cmp	r0, r4
     da4:	d100      	bne.n	da8 <_WriteBlocking+0x50>
     da6:	2400      	movs	r4, #0
     da8:	60ec      	str	r4, [r5, #12]
     daa:	2f00      	cmp	r7, #0
     dac:	d1dc      	bne.n	d68 <_WriteBlocking+0x10>
     dae:	4640      	mov	r0, r8
     db0:	e8bd 87f0 	ldmia.w	sp!, {r4, r5, r6, r7, r8, r9, sl, pc}

00000db4 <_WriteNoCheck>:
     db4:	e92d 41f0 	stmdb	sp!, {r4, r5, r6, r7, r8, lr}
     db8:	4604      	mov	r4, r0
     dba:	4688      	mov	r8, r1
     dbc:	4616      	mov	r6, r2
     dbe:	68e7      	ldr	r7, [r4, #12]
     dc0:	68a0      	ldr	r0, [r4, #8]
     dc2:	1bc5      	subs	r5, r0, r7
     dc4:	68e1      	ldr	r1, [r4, #12]
     dc6:	6860      	ldr	r0, [r4, #4]
     dc8:	42b5      	cmp	r5, r6
     dca:	4408      	add	r0, r1
     dcc:	d907      	bls.n	dde <_WriteNoCheck+0x2a>
     dce:	4632      	mov	r2, r6
     dd0:	4641      	mov	r1, r8
     dd2:	f7ff fb81 	bl	4d8 <__aeabi_memcpy>
     dd6:	19b8      	adds	r0, r7, r6
     dd8:	60e0      	str	r0, [r4, #12]
     dda:	e8bd 81f0 	ldmia.w	sp!, {r4, r5, r6, r7, r8, pc}
     dde:	462a      	mov	r2, r5
     de0:	4641      	mov	r1, r8
     de2:	f7ff fb79 	bl	4d8 <__aeabi_memcpy>
     de6:	1b76      	subs	r6, r6, r5
     de8:	eb08 0105 	add.w	r1, r8, r5
     dec:	4632      	mov	r2, r6
     dee:	6860      	ldr	r0, [r4, #4]
     df0:	f7ff fb72 	bl	4d8 <__aeabi_memcpy>
     df4:	60e6      	str	r6, [r4, #12]
     df6:	e7f0      	b.n	dda <_WriteNoCheck+0x26>

00000df8 <__0vsnprintf>:
     df8:	b57c      	push	{r2, r3, r4, r5, r6, lr}
     dfa:	4604      	mov	r4, r0
     dfc:	2000      	movs	r0, #0
     dfe:	461d      	mov	r5, r3
     e00:	4616      	mov	r6, r2
     e02:	2900      	cmp	r1, #0
     e04:	d00b      	beq.n	e1e <__0vsnprintf+0x26>
     e06:	1e49      	subs	r1, r1, #1
     e08:	e9cd 4100 	strd	r4, r1, [sp]
     e0c:	4b04      	ldr	r3, [pc, #16]	; (e20 <__0vsnprintf+0x28>)
     e0e:	466a      	mov	r2, sp
     e10:	4629      	mov	r1, r5
     e12:	4630      	mov	r0, r6
     e14:	f000 f8d8 	bl	fc8 <_printf_core>
     e18:	9a00      	ldr	r2, [sp, #0]
     e1a:	2100      	movs	r1, #0
     e1c:	7011      	strb	r1, [r2, #0]
     e1e:	bd7c      	pop	{r2, r3, r4, r5, r6, pc}
     e20:	000016f7 	.word	0x000016f7

00000e24 <__scatterload_copy>:
     e24:	e002      	b.n	e2c <__scatterload_copy+0x8>
     e26:	c808      	ldmia	r0!, {r3}
     e28:	1f12      	subs	r2, r2, #4
     e2a:	c108      	stmia	r1!, {r3}
     e2c:	2a00      	cmp	r2, #0
     e2e:	d1fa      	bne.n	e26 <__scatterload_copy+0x2>
     e30:	4770      	bx	lr

00000e32 <__scatterload_null>:
     e32:	4770      	bx	lr

00000e34 <__scatterload_zeroinit>:
     e34:	2000      	movs	r0, #0
     e36:	e001      	b.n	e3c <__scatterload_zeroinit+0x8>
     e38:	c101      	stmia	r1!, {r0}
     e3a:	1f12      	subs	r2, r2, #4
     e3c:	2a00      	cmp	r2, #0
     e3e:	d1fb      	bne.n	e38 <__scatterload_zeroinit+0x4>
     e40:	4770      	bx	lr
	...

00000e44 <_fp_digits>:
     e44:	e92d 5fff 	stmdb	sp!, {r0, r1, r2, r3, r4, r5, r6, r7, r8, r9, sl, fp, ip, lr}
     e48:	b082      	sub	sp, #8
     e4a:	2100      	movs	r1, #0
     e4c:	e9dd 3004 	ldrd	r3, r0, [sp, #16]
     e50:	0d02      	lsrs	r2, r0, #20
     e52:	f8dd b040 	ldr.w	fp, [sp, #64]	; 0x40
     e56:	4303      	orrs	r3, r0
     e58:	d018      	beq.n	e8c <_fp_digits+0x48>
     e5a:	f644 5010 	movw	r0, #19728	; 0x4d10
     e5e:	f2a2 32ff 	subw	r2, r2, #1023	; 0x3ff
     e62:	4342      	muls	r2, r0
     e64:	1415      	asrs	r5, r2, #16
     e66:	9811      	ldr	r0, [sp, #68]	; 0x44
     e68:	2801      	cmp	r0, #1
     e6a:	d01f      	beq.n	eac <_fp_digits+0x68>
     e6c:	eba5 000b 	sub.w	r0, r5, fp
     e70:	1c40      	adds	r0, r0, #1
     e72:	ea5f 0a00 	movs.w	sl, r0
     e76:	f04f 0600 	mov.w	r6, #0
     e7a:	4f4e      	ldr	r7, [pc, #312]	; (fb4 <_fp_digits+0x170>)
     e7c:	f8df 9138 	ldr.w	r9, [pc, #312]	; fb8 <_fp_digits+0x174>
     e80:	46b0      	mov	r8, r6
     e82:	4650      	mov	r0, sl
     e84:	d515      	bpl.n	eb2 <_fp_digits+0x6e>
     e86:	f1ca 0400 	rsb	r4, sl, #0
     e8a:	e013      	b.n	eb4 <_fp_digits+0x70>
     e8c:	9811      	ldr	r0, [sp, #68]	; 0x44
     e8e:	2401      	movs	r4, #1
     e90:	a34a      	add	r3, pc, #296	; (adr r3, fbc <_fp_digits+0x178>)
     e92:	2801      	cmp	r0, #1
     e94:	d101      	bne.n	e9a <_fp_digits+0x56>
     e96:	ea6f 010b 	mvn.w	r1, fp
     e9a:	9802      	ldr	r0, [sp, #8]
     e9c:	9a11      	ldr	r2, [sp, #68]	; 0x44
     e9e:	e9c0 3100 	strd	r3, r1, [r0]
     ea2:	e9c0 4202 	strd	r4, r2, [r0, #8]
     ea6:	b006      	add	sp, #24
     ea8:	e8bd 9ff0 	ldmia.w	sp!, {r4, r5, r6, r7, r8, r9, sl, fp, ip, pc}
     eac:	f1cb 0000 	rsb	r0, fp, #0
     eb0:	e7df      	b.n	e72 <_fp_digits+0x2e>
     eb2:	4604      	mov	r4, r0
     eb4:	2100      	movs	r1, #0
     eb6:	4a40      	ldr	r2, [pc, #256]	; (fb8 <_fp_digits+0x174>)
     eb8:	1849      	adds	r1, r1, r1
     eba:	eb42 5004 	adc.w	r0, r2, r4, lsl #20
     ebe:	e9cd 1000 	strd	r1, r0, [sp]
     ec2:	e012      	b.n	eea <_fp_digits+0xa6>
     ec4:	07e0      	lsls	r0, r4, #31
     ec6:	d007      	beq.n	ed8 <_fp_digits+0x94>
     ec8:	4632      	mov	r2, r6
     eca:	463b      	mov	r3, r7
     ecc:	4640      	mov	r0, r8
     ece:	4649      	mov	r1, r9
     ed0:	f7ff fc0f 	bl	6f2 <__aeabi_dmul>
     ed4:	4680      	mov	r8, r0
     ed6:	4689      	mov	r9, r1
     ed8:	4632      	mov	r2, r6
     eda:	463b      	mov	r3, r7
     edc:	4610      	mov	r0, r2
     ede:	4619      	mov	r1, r3
     ee0:	f7ff fc07 	bl	6f2 <__aeabi_dmul>
     ee4:	4606      	mov	r6, r0
     ee6:	460f      	mov	r7, r1
     ee8:	1064      	asrs	r4, r4, #1
     eea:	2c00      	cmp	r4, #0
     eec:	d1ea      	bne.n	ec4 <_fp_digits+0x80>
     eee:	e9dd 0104 	ldrd	r0, r1, [sp, #16]
     ef2:	e9dd 2300 	ldrd	r2, r3, [sp]
     ef6:	f1ba 0f00 	cmp.w	sl, #0
     efa:	da06      	bge.n	f0a <_fp_digits+0xc6>
     efc:	f7ff fbf9 	bl	6f2 <__aeabi_dmul>
     f00:	4642      	mov	r2, r8
     f02:	464b      	mov	r3, r9
     f04:	f7ff fbf5 	bl	6f2 <__aeabi_dmul>
     f08:	e005      	b.n	f16 <_fp_digits+0xd2>
     f0a:	f7ff fc64 	bl	7d6 <__aeabi_ddiv>
     f0e:	4642      	mov	r2, r8
     f10:	464b      	mov	r3, r9
     f12:	f7ff fc60 	bl	7d6 <__aeabi_ddiv>
     f16:	4604      	mov	r4, r0
     f18:	460e      	mov	r6, r1
     f1a:	2200      	movs	r2, #0
     f1c:	4b28      	ldr	r3, [pc, #160]	; (fc0 <_fp_digits+0x17c>)
     f1e:	f7ff fce1 	bl	8e4 <__aeabi_cdrcmple>
     f22:	d803      	bhi.n	f2c <_fp_digits+0xe8>
     f24:	f04f 30ff 	mov.w	r0, #4294967295	; 0xffffffff
     f28:	4601      	mov	r1, r0
     f2a:	e007      	b.n	f3c <_fp_digits+0xf8>
     f2c:	2200      	movs	r2, #0
     f2e:	4b25      	ldr	r3, [pc, #148]	; (fc4 <_fp_digits+0x180>)
     f30:	4620      	mov	r0, r4
     f32:	4631      	mov	r1, r6
     f34:	f7ff fb36 	bl	5a4 <__aeabi_dadd>
     f38:	f7ff fcbc 	bl	8b4 <__aeabi_d2ulz>
     f3c:	2410      	movs	r4, #16
     f3e:	e009      	b.n	f54 <_fp_digits+0x110>
     f40:	2c00      	cmp	r4, #0
     f42:	db0a      	blt.n	f5a <_fp_digits+0x116>
     f44:	220a      	movs	r2, #10
     f46:	2300      	movs	r3, #0
     f48:	f7ff fa60 	bl	40c <__aeabi_uldivmod>
     f4c:	9b03      	ldr	r3, [sp, #12]
     f4e:	3230      	adds	r2, #48	; 0x30
     f50:	551a      	strb	r2, [r3, r4]
     f52:	1e64      	subs	r4, r4, #1
     f54:	ea50 0201 	orrs.w	r2, r0, r1
     f58:	d1f2      	bne.n	f40 <_fp_digits+0xfc>
     f5a:	1c64      	adds	r4, r4, #1
     f5c:	9a03      	ldr	r2, [sp, #12]
     f5e:	f1c4 0311 	rsb	r3, r4, #17
     f62:	4414      	add	r4, r2
     f64:	9a11      	ldr	r2, [sp, #68]	; 0x44
     f66:	2a01      	cmp	r2, #1
     f68:	d003      	beq.n	f72 <_fp_digits+0x12e>
     f6a:	2201      	movs	r2, #1
     f6c:	4308      	orrs	r0, r1
     f6e:	d10d      	bne.n	f8c <_fp_digits+0x148>
     f70:	e00a      	b.n	f88 <_fp_digits+0x144>
     f72:	4308      	orrs	r0, r1
     f74:	d004      	beq.n	f80 <_fp_digits+0x13c>
     f76:	2000      	movs	r0, #0
     f78:	f04f 0b11 	mov.w	fp, #17
     f7c:	9011      	str	r0, [sp, #68]	; 0x44
     f7e:	e772      	b.n	e66 <_fp_digits+0x22>
     f80:	eba3 050b 	sub.w	r5, r3, fp
     f84:	1e6d      	subs	r5, r5, #1
     f86:	e00d      	b.n	fa4 <_fp_digits+0x160>
     f88:	455b      	cmp	r3, fp
     f8a:	dd04      	ble.n	f96 <_fp_digits+0x152>
     f8c:	f04f 0200 	mov.w	r2, #0
     f90:	f105 0501 	add.w	r5, r5, #1
     f94:	e004      	b.n	fa0 <_fp_digits+0x15c>
     f96:	da03      	bge.n	fa0 <_fp_digits+0x15c>
     f98:	f04f 0200 	mov.w	r2, #0
     f9c:	f1a5 0501 	sub.w	r5, r5, #1
     fa0:	2a00      	cmp	r2, #0
     fa2:	d0ec      	beq.n	f7e <_fp_digits+0x13a>
     fa4:	9802      	ldr	r0, [sp, #8]
     fa6:	9911      	ldr	r1, [sp, #68]	; 0x44
     fa8:	e9c0 3102 	strd	r3, r1, [r0, #8]
     fac:	e9c0 4500 	strd	r4, r5, [r0]
     fb0:	e779      	b.n	ea6 <_fp_digits+0x62>
     fb2:	0000      	.short	0x0000
     fb4:	40140000 	.word	0x40140000
     fb8:	3ff00000 	.word	0x3ff00000
     fbc:	00000030 	.word	0x00000030
     fc0:	43f00000 	.word	0x43f00000
     fc4:	3fe00000 	.word	0x3fe00000

00000fc8 <_printf_core>:
     fc8:	e92d 4fff 	stmdb	sp!, {r0, r1, r2, r3, r4, r5, r6, r7, r8, r9, sl, fp, lr}
     fcc:	b095      	sub	sp, #84	; 0x54
     fce:	469b      	mov	fp, r3
     fd0:	4689      	mov	r9, r1
     fd2:	4606      	mov	r6, r0
     fd4:	2500      	movs	r5, #0
     fd6:	e20f      	b.n	13f8 <_printf_core+0x430>
     fd8:	2825      	cmp	r0, #37	; 0x25
     fda:	d177      	bne.n	10cc <_printf_core+0x104>
     fdc:	2400      	movs	r4, #0
     fde:	4627      	mov	r7, r4
     fe0:	4af8      	ldr	r2, [pc, #992]	; (13c4 <_printf_core+0x3fc>)
     fe2:	2101      	movs	r1, #1
     fe4:	9405      	str	r4, [sp, #20]
     fe6:	e000      	b.n	fea <_printf_core+0x22>
     fe8:	4304      	orrs	r4, r0
     fea:	f816 3f01 	ldrb.w	r3, [r6, #1]!
     fee:	3b20      	subs	r3, #32
     ff0:	fa01 f003 	lsl.w	r0, r1, r3
     ff4:	4210      	tst	r0, r2
     ff6:	d1f7      	bne.n	fe8 <_printf_core+0x20>
     ff8:	7830      	ldrb	r0, [r6, #0]
     ffa:	282a      	cmp	r0, #42	; 0x2a
     ffc:	d011      	beq.n	1022 <_printf_core+0x5a>
     ffe:	f06f 032f 	mvn.w	r3, #47	; 0x2f
    1002:	7830      	ldrb	r0, [r6, #0]
    1004:	f1a0 0230 	sub.w	r2, r0, #48	; 0x30
    1008:	2a09      	cmp	r2, #9
    100a:	d816      	bhi.n	103a <_printf_core+0x72>
    100c:	9a05      	ldr	r2, [sp, #20]
    100e:	f044 0402 	orr.w	r4, r4, #2
    1012:	eb02 0282 	add.w	r2, r2, r2, lsl #2
    1016:	eb03 0242 	add.w	r2, r3, r2, lsl #1
    101a:	4410      	add	r0, r2
    101c:	1c76      	adds	r6, r6, #1
    101e:	9005      	str	r0, [sp, #20]
    1020:	e7ef      	b.n	1002 <_printf_core+0x3a>
    1022:	f859 2b04 	ldr.w	r2, [r9], #4
    1026:	9205      	str	r2, [sp, #20]
    1028:	2a00      	cmp	r2, #0
    102a:	da03      	bge.n	1034 <_printf_core+0x6c>
    102c:	4250      	negs	r0, r2
    102e:	f444 5400 	orr.w	r4, r4, #8192	; 0x2000
    1032:	9005      	str	r0, [sp, #20]
    1034:	f044 0402 	orr.w	r4, r4, #2
    1038:	1c76      	adds	r6, r6, #1
    103a:	7830      	ldrb	r0, [r6, #0]
    103c:	282e      	cmp	r0, #46	; 0x2e
    103e:	d116      	bne.n	106e <_printf_core+0xa6>
    1040:	f816 0f01 	ldrb.w	r0, [r6, #1]!
    1044:	f044 0404 	orr.w	r4, r4, #4
    1048:	282a      	cmp	r0, #42	; 0x2a
    104a:	d00d      	beq.n	1068 <_printf_core+0xa0>
    104c:	f06f 022f 	mvn.w	r2, #47	; 0x2f
    1050:	7830      	ldrb	r0, [r6, #0]
    1052:	f1a0 0330 	sub.w	r3, r0, #48	; 0x30
    1056:	2b09      	cmp	r3, #9
    1058:	d809      	bhi.n	106e <_printf_core+0xa6>
    105a:	eb07 0387 	add.w	r3, r7, r7, lsl #2
    105e:	eb02 0343 	add.w	r3, r2, r3, lsl #1
    1062:	18c7      	adds	r7, r0, r3
    1064:	1c76      	adds	r6, r6, #1
    1066:	e7f3      	b.n	1050 <_printf_core+0x88>
    1068:	f859 7b04 	ldr.w	r7, [r9], #4
    106c:	1c76      	adds	r6, r6, #1
    106e:	7830      	ldrb	r0, [r6, #0]
    1070:	286c      	cmp	r0, #108	; 0x6c
    1072:	d00f      	beq.n	1094 <_printf_core+0xcc>
    1074:	dc06      	bgt.n	1084 <_printf_core+0xbc>
    1076:	284c      	cmp	r0, #76	; 0x4c
    1078:	d017      	beq.n	10aa <_printf_core+0xe2>
    107a:	2868      	cmp	r0, #104	; 0x68
    107c:	d00d      	beq.n	109a <_printf_core+0xd2>
    107e:	286a      	cmp	r0, #106	; 0x6a
    1080:	d114      	bne.n	10ac <_printf_core+0xe4>
    1082:	e004      	b.n	108e <_printf_core+0xc6>
    1084:	2874      	cmp	r0, #116	; 0x74
    1086:	d010      	beq.n	10aa <_printf_core+0xe2>
    1088:	287a      	cmp	r0, #122	; 0x7a
    108a:	d10f      	bne.n	10ac <_printf_core+0xe4>
    108c:	e00d      	b.n	10aa <_printf_core+0xe2>
    108e:	f444 1400 	orr.w	r4, r4, #2097152	; 0x200000
    1092:	e00a      	b.n	10aa <_printf_core+0xe2>
    1094:	f444 1480 	orr.w	r4, r4, #1048576	; 0x100000
    1098:	e001      	b.n	109e <_printf_core+0xd6>
    109a:	f444 1440 	orr.w	r4, r4, #3145728	; 0x300000
    109e:	7872      	ldrb	r2, [r6, #1]
    10a0:	4282      	cmp	r2, r0
    10a2:	d102      	bne.n	10aa <_printf_core+0xe2>
    10a4:	f504 1480 	add.w	r4, r4, #1048576	; 0x100000
    10a8:	1c76      	adds	r6, r6, #1
    10aa:	1c76      	adds	r6, r6, #1
    10ac:	7830      	ldrb	r0, [r6, #0]
    10ae:	2866      	cmp	r0, #102	; 0x66
    10b0:	d00b      	beq.n	10ca <_printf_core+0x102>
    10b2:	dc13      	bgt.n	10dc <_printf_core+0x114>
    10b4:	2858      	cmp	r0, #88	; 0x58
    10b6:	d077      	beq.n	11a8 <_printf_core+0x1e0>
    10b8:	dc09      	bgt.n	10ce <_printf_core+0x106>
    10ba:	2800      	cmp	r0, #0
    10bc:	d075      	beq.n	11aa <_printf_core+0x1e2>
    10be:	2845      	cmp	r0, #69	; 0x45
    10c0:	d0f6      	beq.n	10b0 <_printf_core+0xe8>
    10c2:	2846      	cmp	r0, #70	; 0x46
    10c4:	d0f4      	beq.n	10b0 <_printf_core+0xe8>
    10c6:	2847      	cmp	r0, #71	; 0x47
    10c8:	d11a      	bne.n	1100 <_printf_core+0x138>
    10ca:	e19d      	b.n	1408 <_printf_core+0x440>
    10cc:	e018      	b.n	1100 <_printf_core+0x138>
    10ce:	2863      	cmp	r0, #99	; 0x63
    10d0:	d035      	beq.n	113e <_printf_core+0x176>
    10d2:	2864      	cmp	r0, #100	; 0x64
    10d4:	d079      	beq.n	11ca <_printf_core+0x202>
    10d6:	2865      	cmp	r0, #101	; 0x65
    10d8:	d112      	bne.n	1100 <_printf_core+0x138>
    10da:	e195      	b.n	1408 <_printf_core+0x440>
    10dc:	2870      	cmp	r0, #112	; 0x70
    10de:	d073      	beq.n	11c8 <_printf_core+0x200>
    10e0:	dc08      	bgt.n	10f4 <_printf_core+0x12c>
    10e2:	2867      	cmp	r0, #103	; 0x67
    10e4:	d0f1      	beq.n	10ca <_printf_core+0x102>
    10e6:	2869      	cmp	r0, #105	; 0x69
    10e8:	d06f      	beq.n	11ca <_printf_core+0x202>
    10ea:	286e      	cmp	r0, #110	; 0x6e
    10ec:	d00d      	beq.n	110a <_printf_core+0x142>
    10ee:	286f      	cmp	r0, #111	; 0x6f
    10f0:	d106      	bne.n	1100 <_printf_core+0x138>
    10f2:	e0b5      	b.n	1260 <_printf_core+0x298>
    10f4:	2873      	cmp	r0, #115	; 0x73
    10f6:	d02c      	beq.n	1152 <_printf_core+0x18a>
    10f8:	2875      	cmp	r0, #117	; 0x75
    10fa:	d075      	beq.n	11e8 <_printf_core+0x220>
    10fc:	2878      	cmp	r0, #120	; 0x78
    10fe:	d074      	beq.n	11ea <_printf_core+0x222>
    1100:	465a      	mov	r2, fp
    1102:	9917      	ldr	r1, [sp, #92]	; 0x5c
    1104:	4790      	blx	r2
    1106:	1c6d      	adds	r5, r5, #1
    1108:	e175      	b.n	13f6 <_printf_core+0x42e>
    110a:	f3c4 5002 	ubfx	r0, r4, #20, #3
    110e:	2802      	cmp	r0, #2
    1110:	d009      	beq.n	1126 <_printf_core+0x15e>
    1112:	2803      	cmp	r0, #3
    1114:	d00d      	beq.n	1132 <_printf_core+0x16a>
    1116:	f8d9 1000 	ldr.w	r1, [r9]
    111a:	2804      	cmp	r0, #4
    111c:	d00d      	beq.n	113a <_printf_core+0x172>
    111e:	600d      	str	r5, [r1, #0]
    1120:	f109 0904 	add.w	r9, r9, #4
    1124:	e167      	b.n	13f6 <_printf_core+0x42e>
    1126:	f8d9 1000 	ldr.w	r1, [r9]
    112a:	17ea      	asrs	r2, r5, #31
    112c:	e9c1 5200 	strd	r5, r2, [r1]
    1130:	e7f6      	b.n	1120 <_printf_core+0x158>
    1132:	f8d9 1000 	ldr.w	r1, [r9]
    1136:	800d      	strh	r5, [r1, #0]
    1138:	e7f2      	b.n	1120 <_printf_core+0x158>
    113a:	700d      	strb	r5, [r1, #0]
    113c:	e7f0      	b.n	1120 <_printf_core+0x158>
    113e:	f819 1b04 	ldrb.w	r1, [r9], #4
    1142:	f88d 1000 	strb.w	r1, [sp]
    1146:	2000      	movs	r0, #0
    1148:	f88d 0001 	strb.w	r0, [sp, #1]
    114c:	46ea      	mov	sl, sp
    114e:	2001      	movs	r0, #1
    1150:	e003      	b.n	115a <_printf_core+0x192>
    1152:	f859 ab04 	ldr.w	sl, [r9], #4
    1156:	f04f 30ff 	mov.w	r0, #4294967295	; 0xffffffff
    115a:	0761      	lsls	r1, r4, #29
    115c:	f04f 0100 	mov.w	r1, #0
    1160:	d402      	bmi.n	1168 <_printf_core+0x1a0>
    1162:	e00d      	b.n	1180 <_printf_core+0x1b8>
    1164:	f108 0101 	add.w	r1, r8, #1
    1168:	4688      	mov	r8, r1
    116a:	42b9      	cmp	r1, r7
    116c:	da0f      	bge.n	118e <_printf_core+0x1c6>
    116e:	4580      	cmp	r8, r0
    1170:	dbf8      	blt.n	1164 <_printf_core+0x19c>
    1172:	f81a 1008 	ldrb.w	r1, [sl, r8]
    1176:	2900      	cmp	r1, #0
    1178:	d1f4      	bne.n	1164 <_printf_core+0x19c>
    117a:	e008      	b.n	118e <_printf_core+0x1c6>
    117c:	f108 0101 	add.w	r1, r8, #1
    1180:	4688      	mov	r8, r1
    1182:	4281      	cmp	r1, r0
    1184:	dbfa      	blt.n	117c <_printf_core+0x1b4>
    1186:	f81a 1008 	ldrb.w	r1, [sl, r8]
    118a:	2900      	cmp	r1, #0
    118c:	d1f6      	bne.n	117c <_printf_core+0x1b4>
    118e:	9805      	ldr	r0, [sp, #20]
    1190:	465b      	mov	r3, fp
    1192:	eba0 0708 	sub.w	r7, r0, r8
    1196:	4621      	mov	r1, r4
    1198:	4638      	mov	r0, r7
    119a:	9a17      	ldr	r2, [sp, #92]	; 0x5c
    119c:	f000 fa94 	bl	16c8 <_printf_pre_padding>
    11a0:	4428      	add	r0, r5
    11a2:	eb00 0508 	add.w	r5, r0, r8
    11a6:	e007      	b.n	11b8 <_printf_core+0x1f0>
    11a8:	e04d      	b.n	1246 <_printf_core+0x27e>
    11aa:	e129      	b.n	1400 <_printf_core+0x438>
    11ac:	e00d      	b.n	11ca <_printf_core+0x202>
    11ae:	f81a 0b01 	ldrb.w	r0, [sl], #1
    11b2:	465a      	mov	r2, fp
    11b4:	9917      	ldr	r1, [sp, #92]	; 0x5c
    11b6:	4790      	blx	r2
    11b8:	f1b8 0801 	subs.w	r8, r8, #1
    11bc:	d2f7      	bcs.n	11ae <_printf_core+0x1e6>
    11be:	465b      	mov	r3, fp
    11c0:	4621      	mov	r1, r4
    11c2:	4638      	mov	r0, r7
    11c4:	9a17      	ldr	r2, [sp, #92]	; 0x5c
    11c6:	e113      	b.n	13f0 <_printf_core+0x428>
    11c8:	e042      	b.n	1250 <_printf_core+0x288>
    11ca:	220a      	movs	r2, #10
    11cc:	9200      	str	r2, [sp, #0]
    11ce:	f3c4 5202 	ubfx	r2, r4, #20, #3
    11d2:	f04f 0a00 	mov.w	sl, #0
    11d6:	2a02      	cmp	r2, #2
    11d8:	d008      	beq.n	11ec <_printf_core+0x224>
    11da:	f859 cb04 	ldr.w	ip, [r9], #4
    11de:	2a03      	cmp	r2, #3
    11e0:	ea4f 71ec 	mov.w	r1, ip, asr #31
    11e4:	d00a      	beq.n	11fc <_printf_core+0x234>
    11e6:	e00d      	b.n	1204 <_printf_core+0x23c>
    11e8:	e029      	b.n	123e <_printf_core+0x276>
    11ea:	e02a      	b.n	1242 <_printf_core+0x27a>
    11ec:	f109 0107 	add.w	r1, r9, #7
    11f0:	f021 0207 	bic.w	r2, r1, #7
    11f4:	e8f2 c102 	ldrd	ip, r1, [r2], #8
    11f8:	4691      	mov	r9, r2
    11fa:	e009      	b.n	1210 <_printf_core+0x248>
    11fc:	fa0f fc8c 	sxth.w	ip, ip
    1200:	ea4f 71ec 	mov.w	r1, ip, asr #31
    1204:	2a04      	cmp	r2, #4
    1206:	d103      	bne.n	1210 <_printf_core+0x248>
    1208:	fa4f fc8c 	sxtb.w	ip, ip
    120c:	ea4f 71ec 	mov.w	r1, ip, asr #31
    1210:	2900      	cmp	r1, #0
    1212:	da07      	bge.n	1224 <_printf_core+0x25c>
    1214:	460a      	mov	r2, r1
    1216:	2100      	movs	r1, #0
    1218:	f1dc 0c00 	rsbs	ip, ip, #0
    121c:	eb61 0102 	sbc.w	r1, r1, r2
    1220:	222d      	movs	r2, #45	; 0x2d
    1222:	e002      	b.n	122a <_printf_core+0x262>
    1224:	0522      	lsls	r2, r4, #20
    1226:	d504      	bpl.n	1232 <_printf_core+0x26a>
    1228:	222b      	movs	r2, #43	; 0x2b
    122a:	f88d 2004 	strb.w	r2, [sp, #4]
    122e:	2201      	movs	r2, #1
    1230:	e003      	b.n	123a <_printf_core+0x272>
    1232:	07e2      	lsls	r2, r4, #31
    1234:	d001      	beq.n	123a <_printf_core+0x272>
    1236:	2220      	movs	r2, #32
    1238:	e7f7      	b.n	122a <_printf_core+0x262>
    123a:	4690      	mov	r8, r2
    123c:	e059      	b.n	12f2 <_printf_core+0x32a>
    123e:	210a      	movs	r1, #10
    1240:	e002      	b.n	1248 <_printf_core+0x280>
    1242:	2210      	movs	r2, #16
    1244:	e00d      	b.n	1262 <_printf_core+0x29a>
    1246:	2110      	movs	r1, #16
    1248:	f04f 0a00 	mov.w	sl, #0
    124c:	9100      	str	r1, [sp, #0]
    124e:	e00b      	b.n	1268 <_printf_core+0x2a0>
    1250:	2210      	movs	r2, #16
    1252:	f04f 0a00 	mov.w	sl, #0
    1256:	f044 0404 	orr.w	r4, r4, #4
    125a:	2708      	movs	r7, #8
    125c:	9200      	str	r2, [sp, #0]
    125e:	e003      	b.n	1268 <_printf_core+0x2a0>
    1260:	2208      	movs	r2, #8
    1262:	f04f 0a00 	mov.w	sl, #0
    1266:	9200      	str	r2, [sp, #0]
    1268:	f3c4 5202 	ubfx	r2, r4, #20, #3
    126c:	2a02      	cmp	r2, #2
    126e:	d005      	beq.n	127c <_printf_core+0x2b4>
    1270:	f859 cb04 	ldr.w	ip, [r9], #4
    1274:	2100      	movs	r1, #0
    1276:	2a03      	cmp	r2, #3
    1278:	d008      	beq.n	128c <_printf_core+0x2c4>
    127a:	e009      	b.n	1290 <_printf_core+0x2c8>
    127c:	f109 0107 	add.w	r1, r9, #7
    1280:	f021 0207 	bic.w	r2, r1, #7
    1284:	e8f2 c102 	ldrd	ip, r1, [r2], #8
    1288:	4691      	mov	r9, r2
    128a:	e005      	b.n	1298 <_printf_core+0x2d0>
    128c:	fa1f fc8c 	uxth.w	ip, ip
    1290:	2a04      	cmp	r2, #4
    1292:	d101      	bne.n	1298 <_printf_core+0x2d0>
    1294:	f00c 0cff 	and.w	ip, ip, #255	; 0xff
    1298:	f04f 0800 	mov.w	r8, #0
    129c:	0722      	lsls	r2, r4, #28
    129e:	d528      	bpl.n	12f2 <_printf_core+0x32a>
    12a0:	2870      	cmp	r0, #112	; 0x70
    12a2:	d006      	beq.n	12b2 <_printf_core+0x2ea>
    12a4:	9b00      	ldr	r3, [sp, #0]
    12a6:	f083 0310 	eor.w	r3, r3, #16
    12aa:	ea53 030a 	orrs.w	r3, r3, sl
    12ae:	d005      	beq.n	12bc <_printf_core+0x2f4>
    12b0:	e00e      	b.n	12d0 <_printf_core+0x308>
    12b2:	2240      	movs	r2, #64	; 0x40
    12b4:	f88d 2004 	strb.w	r2, [sp, #4]
    12b8:	2201      	movs	r2, #1
    12ba:	e008      	b.n	12ce <_printf_core+0x306>
    12bc:	ea5c 0201 	orrs.w	r2, ip, r1
    12c0:	d006      	beq.n	12d0 <_printf_core+0x308>
    12c2:	2230      	movs	r2, #48	; 0x30
    12c4:	f88d 2004 	strb.w	r2, [sp, #4]
    12c8:	f88d 0005 	strb.w	r0, [sp, #5]
    12cc:	2202      	movs	r2, #2
    12ce:	4690      	mov	r8, r2
    12d0:	9b00      	ldr	r3, [sp, #0]
    12d2:	f083 0308 	eor.w	r3, r3, #8
    12d6:	ea53 030a 	orrs.w	r3, r3, sl
    12da:	d10a      	bne.n	12f2 <_printf_core+0x32a>
    12dc:	ea5c 0201 	orrs.w	r2, ip, r1
    12e0:	d101      	bne.n	12e6 <_printf_core+0x31e>
    12e2:	0762      	lsls	r2, r4, #29
    12e4:	d505      	bpl.n	12f2 <_printf_core+0x32a>
    12e6:	2230      	movs	r2, #48	; 0x30
    12e8:	f88d 2004 	strb.w	r2, [sp, #4]
    12ec:	f04f 0801 	mov.w	r8, #1
    12f0:	1e7f      	subs	r7, r7, #1
    12f2:	2858      	cmp	r0, #88	; 0x58
    12f4:	d004      	beq.n	1300 <_printf_core+0x338>
    12f6:	a034      	add	r0, pc, #208	; (adr r0, 13c8 <_printf_core+0x400>)
    12f8:	9003      	str	r0, [sp, #12]
    12fa:	a80e      	add	r0, sp, #56	; 0x38
    12fc:	9002      	str	r0, [sp, #8]
    12fe:	e00d      	b.n	131c <_printf_core+0x354>
    1300:	a036      	add	r0, pc, #216	; (adr r0, 13dc <_printf_core+0x414>)
    1302:	e7f9      	b.n	12f8 <_printf_core+0x330>
    1304:	4653      	mov	r3, sl
    1306:	4660      	mov	r0, ip
    1308:	9a00      	ldr	r2, [sp, #0]
    130a:	f7ff f87f 	bl	40c <__aeabi_uldivmod>
    130e:	4684      	mov	ip, r0
    1310:	9803      	ldr	r0, [sp, #12]
    1312:	5c82      	ldrb	r2, [r0, r2]
    1314:	9802      	ldr	r0, [sp, #8]
    1316:	1e40      	subs	r0, r0, #1
    1318:	9002      	str	r0, [sp, #8]
    131a:	7002      	strb	r2, [r0, #0]
    131c:	ea5c 0001 	orrs.w	r0, ip, r1
    1320:	d1f0      	bne.n	1304 <_printf_core+0x33c>
    1322:	9802      	ldr	r0, [sp, #8]
    1324:	a906      	add	r1, sp, #24
    1326:	1a08      	subs	r0, r1, r0
    1328:	f100 0a20 	add.w	sl, r0, #32
    132c:	0760      	lsls	r0, r4, #29
    132e:	d502      	bpl.n	1336 <_printf_core+0x36e>
    1330:	f424 3480 	bic.w	r4, r4, #65536	; 0x10000
    1334:	e000      	b.n	1338 <_printf_core+0x370>
    1336:	2701      	movs	r7, #1
    1338:	4557      	cmp	r7, sl
    133a:	dd02      	ble.n	1342 <_printf_core+0x37a>
    133c:	eba7 000a 	sub.w	r0, r7, sl
    1340:	e000      	b.n	1344 <_printf_core+0x37c>
    1342:	2000      	movs	r0, #0
    1344:	eb00 010a 	add.w	r1, r0, sl
    1348:	9000      	str	r0, [sp, #0]
    134a:	9805      	ldr	r0, [sp, #20]
    134c:	4441      	add	r1, r8
    134e:	1a40      	subs	r0, r0, r1
    1350:	9005      	str	r0, [sp, #20]
    1352:	03e0      	lsls	r0, r4, #15
    1354:	d406      	bmi.n	1364 <_printf_core+0x39c>
    1356:	465b      	mov	r3, fp
    1358:	4621      	mov	r1, r4
    135a:	9a17      	ldr	r2, [sp, #92]	; 0x5c
    135c:	9805      	ldr	r0, [sp, #20]
    135e:	f000 f9b3 	bl	16c8 <_printf_pre_padding>
    1362:	4405      	add	r5, r0
    1364:	2700      	movs	r7, #0
    1366:	e006      	b.n	1376 <_printf_core+0x3ae>
    1368:	a801      	add	r0, sp, #4
    136a:	465a      	mov	r2, fp
    136c:	5dc0      	ldrb	r0, [r0, r7]
    136e:	9917      	ldr	r1, [sp, #92]	; 0x5c
    1370:	4790      	blx	r2
    1372:	1c6d      	adds	r5, r5, #1
    1374:	1c7f      	adds	r7, r7, #1
    1376:	4547      	cmp	r7, r8
    1378:	dbf6      	blt.n	1368 <_printf_core+0x3a0>
    137a:	03e0      	lsls	r0, r4, #15
    137c:	d50c      	bpl.n	1398 <_printf_core+0x3d0>
    137e:	465b      	mov	r3, fp
    1380:	4621      	mov	r1, r4
    1382:	9a17      	ldr	r2, [sp, #92]	; 0x5c
    1384:	9805      	ldr	r0, [sp, #20]
    1386:	f000 f99f 	bl	16c8 <_printf_pre_padding>
    138a:	4405      	add	r5, r0
    138c:	e004      	b.n	1398 <_printf_core+0x3d0>
    138e:	2030      	movs	r0, #48	; 0x30
    1390:	465a      	mov	r2, fp
    1392:	9917      	ldr	r1, [sp, #92]	; 0x5c
    1394:	4790      	blx	r2
    1396:	1c6d      	adds	r5, r5, #1
    1398:	9900      	ldr	r1, [sp, #0]
    139a:	1e48      	subs	r0, r1, #1
    139c:	9000      	str	r0, [sp, #0]
    139e:	2900      	cmp	r1, #0
    13a0:	dcf5      	bgt.n	138e <_printf_core+0x3c6>
    13a2:	e008      	b.n	13b6 <_printf_core+0x3ee>
    13a4:	9802      	ldr	r0, [sp, #8]
    13a6:	9902      	ldr	r1, [sp, #8]
    13a8:	465a      	mov	r2, fp
    13aa:	7800      	ldrb	r0, [r0, #0]
    13ac:	1c49      	adds	r1, r1, #1
    13ae:	9102      	str	r1, [sp, #8]
    13b0:	9917      	ldr	r1, [sp, #92]	; 0x5c
    13b2:	4790      	blx	r2
    13b4:	1c6d      	adds	r5, r5, #1
    13b6:	f1ba 0100 	subs.w	r1, sl, #0
    13ba:	f1aa 0a01 	sub.w	sl, sl, #1
    13be:	dcf1      	bgt.n	13a4 <_printf_core+0x3dc>
    13c0:	e165      	b.n	168e <_printf_core+0x6c6>
    13c2:	0000      	.short	0x0000
    13c4:	00012809 	.word	0x00012809
    13c8:	33323130 	.word	0x33323130
    13cc:	37363534 	.word	0x37363534
    13d0:	62613938 	.word	0x62613938
    13d4:	66656463 	.word	0x66656463
    13d8:	00000000 	.word	0x00000000
    13dc:	33323130 	.word	0x33323130
    13e0:	37363534 	.word	0x37363534
    13e4:	42413938 	.word	0x42413938
    13e8:	46454443 	.word	0x46454443
    13ec:	00000000 	.word	0x00000000
    13f0:	f000 f958 	bl	16a4 <_printf_post_padding>
    13f4:	4405      	add	r5, r0
    13f6:	1c76      	adds	r6, r6, #1
    13f8:	7830      	ldrb	r0, [r6, #0]
    13fa:	2800      	cmp	r0, #0
    13fc:	f47f adec 	bne.w	fd8 <_printf_core+0x10>
    1400:	b019      	add	sp, #100	; 0x64
    1402:	4628      	mov	r0, r5
    1404:	e8bd 8ff0 	ldmia.w	sp!, {r4, r5, r6, r7, r8, r9, sl, fp, pc}
    1408:	0762      	lsls	r2, r4, #29
    140a:	d400      	bmi.n	140e <_printf_core+0x446>
    140c:	2706      	movs	r7, #6
    140e:	f109 0207 	add.w	r2, r9, #7
    1412:	f022 0c07 	bic.w	ip, r2, #7
    1416:	e8fc 2302 	ldrd	r2, r3, [ip], #8
    141a:	46e1      	mov	r9, ip
    141c:	f003 4800 	and.w	r8, r3, #2147483648	; 0x80000000
    1420:	ea5f 0c08 	movs.w	ip, r8
    1424:	d002      	beq.n	142c <_printf_core+0x464>
    1426:	f20f 2c70 	addw	ip, pc, #624	; 0x270
    142a:	e00d      	b.n	1448 <_printf_core+0x480>
    142c:	ea5f 5c04 	movs.w	ip, r4, lsl #20
    1430:	d502      	bpl.n	1438 <_printf_core+0x470>
    1432:	f20f 2c68 	addw	ip, pc, #616	; 0x268
    1436:	e007      	b.n	1448 <_printf_core+0x480>
    1438:	ea5f 7cc4 	movs.w	ip, r4, lsl #31
    143c:	d002      	beq.n	1444 <_printf_core+0x47c>
    143e:	f20f 2c60 	addw	ip, pc, #608	; 0x260
    1442:	e001      	b.n	1448 <_printf_core+0x480>
    1444:	f2af 0c70 	subw	ip, pc, #112	; 0x70
    1448:	f04f 38ff 	mov.w	r8, #4294967295	; 0xffffffff
    144c:	f023 4300 	bic.w	r3, r3, #2147483648	; 0x80000000
    1450:	f8cd c050 	str.w	ip, [sp, #80]	; 0x50
    1454:	2865      	cmp	r0, #101	; 0x65
    1456:	d00c      	beq.n	1472 <_printf_core+0x4aa>
    1458:	dc06      	bgt.n	1468 <_printf_core+0x4a0>
    145a:	2845      	cmp	r0, #69	; 0x45
    145c:	d009      	beq.n	1472 <_printf_core+0x4aa>
    145e:	2846      	cmp	r0, #70	; 0x46
    1460:	d01d      	beq.n	149e <_printf_core+0x4d6>
    1462:	2847      	cmp	r0, #71	; 0x47
    1464:	d13d      	bne.n	14e2 <_printf_core+0x51a>
    1466:	e03d      	b.n	14e4 <_printf_core+0x51c>
    1468:	2866      	cmp	r0, #102	; 0x66
    146a:	d018      	beq.n	149e <_printf_core+0x4d6>
    146c:	2867      	cmp	r0, #103	; 0x67
    146e:	d17e      	bne.n	156e <_printf_core+0x5a6>
    1470:	e038      	b.n	14e4 <_printf_core+0x51c>
    1472:	2100      	movs	r1, #0
    1474:	2f11      	cmp	r7, #17
    1476:	db01      	blt.n	147c <_printf_core+0x4b4>
    1478:	2011      	movs	r0, #17
    147a:	e000      	b.n	147e <_printf_core+0x4b6>
    147c:	1c78      	adds	r0, r7, #1
    147e:	e9cd 0100 	strd	r0, r1, [sp]
    1482:	a906      	add	r1, sp, #24
    1484:	a80e      	add	r0, sp, #56	; 0x38
    1486:	f7ff fcdd 	bl	e44 <_fp_digits>
    148a:	e9dd 010f 	ldrd	r0, r1, [sp, #60]	; 0x3c
    148e:	9a0e      	ldr	r2, [sp, #56]	; 0x38
    1490:	9103      	str	r1, [sp, #12]
    1492:	2100      	movs	r1, #0
    1494:	9200      	str	r2, [sp, #0]
    1496:	f107 0a01 	add.w	sl, r7, #1
    149a:	9104      	str	r1, [sp, #16]
    149c:	e04d      	b.n	153a <_printf_core+0x572>
    149e:	f04f 4000 	mov.w	r0, #2147483648	; 0x80000000
    14a2:	9700      	str	r7, [sp, #0]
    14a4:	e9cd 1001 	strd	r1, r0, [sp, #4]
    14a8:	a906      	add	r1, sp, #24
    14aa:	a80e      	add	r0, sp, #56	; 0x38
    14ac:	f7ff fcca 	bl	e44 <_fp_digits>
    14b0:	e9dd 020f 	ldrd	r0, r2, [sp, #60]	; 0x3c
    14b4:	9203      	str	r2, [sp, #12]
    14b6:	9b0e      	ldr	r3, [sp, #56]	; 0x38
    14b8:	9911      	ldr	r1, [sp, #68]	; 0x44
    14ba:	2200      	movs	r2, #0
    14bc:	f8dd a00c 	ldr.w	sl, [sp, #12]
    14c0:	9300      	str	r3, [sp, #0]
    14c2:	9204      	str	r2, [sp, #16]
    14c4:	b911      	cbnz	r1, 14cc <_printf_core+0x504>
    14c6:	1c79      	adds	r1, r7, #1
    14c8:	eb00 0a01 	add.w	sl, r0, r1
    14cc:	ebb7 000a 	subs.w	r0, r7, sl
    14d0:	d404      	bmi.n	14dc <_printf_core+0x514>
    14d2:	f1c0 30ff 	rsb	r0, r0, #4294967295	; 0xffffffff
    14d6:	f107 0a01 	add.w	sl, r7, #1
    14da:	9004      	str	r0, [sp, #16]
    14dc:	ebaa 0007 	sub.w	r0, sl, r7
    14e0:	9001      	str	r0, [sp, #4]
    14e2:	e044      	b.n	156e <_printf_core+0x5a6>
    14e4:	2f01      	cmp	r7, #1
    14e6:	da00      	bge.n	14ea <_printf_core+0x522>
    14e8:	2701      	movs	r7, #1
    14ea:	2100      	movs	r1, #0
    14ec:	2f11      	cmp	r7, #17
    14ee:	dd01      	ble.n	14f4 <_printf_core+0x52c>
    14f0:	2011      	movs	r0, #17
    14f2:	e000      	b.n	14f6 <_printf_core+0x52e>
    14f4:	4638      	mov	r0, r7
    14f6:	e9cd 0100 	strd	r0, r1, [sp]
    14fa:	a906      	add	r1, sp, #24
    14fc:	a80e      	add	r0, sp, #56	; 0x38
    14fe:	f7ff fca1 	bl	e44 <_fp_digits>
    1502:	e9dd 010f 	ldrd	r0, r1, [sp, #60]	; 0x3c
    1506:	9a0e      	ldr	r2, [sp, #56]	; 0x38
    1508:	9103      	str	r1, [sp, #12]
    150a:	2100      	movs	r1, #0
    150c:	9104      	str	r1, [sp, #16]
    150e:	9200      	str	r2, [sp, #0]
    1510:	46ba      	mov	sl, r7
    1512:	0721      	lsls	r1, r4, #28
    1514:	d40c      	bmi.n	1530 <_printf_core+0x568>
    1516:	9903      	ldr	r1, [sp, #12]
    1518:	4551      	cmp	r1, sl
    151a:	da00      	bge.n	151e <_printf_core+0x556>
    151c:	468a      	mov	sl, r1
    151e:	f1ba 0f01 	cmp.w	sl, #1
    1522:	dd05      	ble.n	1530 <_printf_core+0x568>
    1524:	9a00      	ldr	r2, [sp, #0]
    1526:	f1aa 0101 	sub.w	r1, sl, #1
    152a:	5c51      	ldrb	r1, [r2, r1]
    152c:	2930      	cmp	r1, #48	; 0x30
    152e:	d008      	beq.n	1542 <_printf_core+0x57a>
    1530:	42b8      	cmp	r0, r7
    1532:	da02      	bge.n	153a <_printf_core+0x572>
    1534:	f110 0f04 	cmn.w	r0, #4
    1538:	da06      	bge.n	1548 <_printf_core+0x580>
    153a:	2101      	movs	r1, #1
    153c:	e9cd 1001 	strd	r1, r0, [sp, #4]
    1540:	e015      	b.n	156e <_printf_core+0x5a6>
    1542:	f1aa 0101 	sub.w	r1, sl, #1
    1546:	e7e9      	b.n	151c <_printf_core+0x554>
    1548:	2800      	cmp	r0, #0
    154a:	dc05      	bgt.n	1558 <_printf_core+0x590>
    154c:	9904      	ldr	r1, [sp, #16]
    154e:	4401      	add	r1, r0
    1550:	9104      	str	r1, [sp, #16]
    1552:	ebaa 0100 	sub.w	r1, sl, r0
    1556:	e002      	b.n	155e <_printf_core+0x596>
    1558:	1c41      	adds	r1, r0, #1
    155a:	4551      	cmp	r1, sl
    155c:	dd00      	ble.n	1560 <_printf_core+0x598>
    155e:	468a      	mov	sl, r1
    1560:	9904      	ldr	r1, [sp, #16]
    1562:	1a40      	subs	r0, r0, r1
    1564:	1c40      	adds	r0, r0, #1
    1566:	9001      	str	r0, [sp, #4]
    1568:	f04f 4000 	mov.w	r0, #2147483648	; 0x80000000
    156c:	9002      	str	r0, [sp, #8]
    156e:	0720      	lsls	r0, r4, #28
    1570:	d404      	bmi.n	157c <_printf_core+0x5b4>
    1572:	9801      	ldr	r0, [sp, #4]
    1574:	4550      	cmp	r0, sl
    1576:	db01      	blt.n	157c <_printf_core+0x5b4>
    1578:	f8cd 8004 	str.w	r8, [sp, #4]
    157c:	2000      	movs	r0, #0
    157e:	f88d 004f 	strb.w	r0, [sp, #79]	; 0x4f
    1582:	9802      	ldr	r0, [sp, #8]
    1584:	f10d 074f 	add.w	r7, sp, #79	; 0x4f
    1588:	f1b0 4f00 	cmp.w	r0, #2147483648	; 0x80000000
    158c:	d025      	beq.n	15da <_printf_core+0x612>
    158e:	202b      	movs	r0, #43	; 0x2b
    1590:	900e      	str	r0, [sp, #56]	; 0x38
    1592:	9802      	ldr	r0, [sp, #8]
    1594:	f04f 0802 	mov.w	r8, #2
    1598:	2800      	cmp	r0, #0
    159a:	da0c      	bge.n	15b6 <_printf_core+0x5ee>
    159c:	4240      	negs	r0, r0
    159e:	9002      	str	r0, [sp, #8]
    15a0:	202d      	movs	r0, #45	; 0x2d
    15a2:	900e      	str	r0, [sp, #56]	; 0x38
    15a4:	e007      	b.n	15b6 <_printf_core+0x5ee>
    15a6:	210a      	movs	r1, #10
    15a8:	9802      	ldr	r0, [sp, #8]
    15aa:	f7fe ffe5 	bl	578 <__aeabi_uidivmod>
    15ae:	3130      	adds	r1, #48	; 0x30
    15b0:	9002      	str	r0, [sp, #8]
    15b2:	f807 1d01 	strb.w	r1, [r7, #-1]!
    15b6:	f1b8 0100 	subs.w	r1, r8, #0
    15ba:	f1a8 0801 	sub.w	r8, r8, #1
    15be:	dcf2      	bgt.n	15a6 <_printf_core+0x5de>
    15c0:	9802      	ldr	r0, [sp, #8]
    15c2:	2800      	cmp	r0, #0
    15c4:	d1ef      	bne.n	15a6 <_printf_core+0x5de>
    15c6:	1e79      	subs	r1, r7, #1
    15c8:	980e      	ldr	r0, [sp, #56]	; 0x38
    15ca:	7008      	strb	r0, [r1, #0]
    15cc:	7830      	ldrb	r0, [r6, #0]
    15ce:	f000 0020 	and.w	r0, r0, #32
    15d2:	f040 0045 	orr.w	r0, r0, #69	; 0x45
    15d6:	f807 0d02 	strb.w	r0, [r7, #-2]!
    15da:	a812      	add	r0, sp, #72	; 0x48
    15dc:	1bc0      	subs	r0, r0, r7
    15de:	f100 0807 	add.w	r8, r0, #7
    15e2:	9814      	ldr	r0, [sp, #80]	; 0x50
    15e4:	7800      	ldrb	r0, [r0, #0]
    15e6:	b100      	cbz	r0, 15ea <_printf_core+0x622>
    15e8:	2001      	movs	r0, #1
    15ea:	eb00 010a 	add.w	r1, r0, sl
    15ee:	9801      	ldr	r0, [sp, #4]
    15f0:	eb01 71e0 	add.w	r1, r1, r0, asr #31
    15f4:	9805      	ldr	r0, [sp, #20]
    15f6:	4441      	add	r1, r8
    15f8:	1a40      	subs	r0, r0, r1
    15fa:	1e40      	subs	r0, r0, #1
    15fc:	9005      	str	r0, [sp, #20]
    15fe:	03e0      	lsls	r0, r4, #15
    1600:	d406      	bmi.n	1610 <_printf_core+0x648>
    1602:	465b      	mov	r3, fp
    1604:	4621      	mov	r1, r4
    1606:	9a17      	ldr	r2, [sp, #92]	; 0x5c
    1608:	9805      	ldr	r0, [sp, #20]
    160a:	f000 f85d 	bl	16c8 <_printf_pre_padding>
    160e:	4405      	add	r5, r0
    1610:	9814      	ldr	r0, [sp, #80]	; 0x50
    1612:	7800      	ldrb	r0, [r0, #0]
    1614:	b118      	cbz	r0, 161e <_printf_core+0x656>
    1616:	465a      	mov	r2, fp
    1618:	9917      	ldr	r1, [sp, #92]	; 0x5c
    161a:	4790      	blx	r2
    161c:	1c6d      	adds	r5, r5, #1
    161e:	03e0      	lsls	r0, r4, #15
    1620:	d524      	bpl.n	166c <_printf_core+0x6a4>
    1622:	465b      	mov	r3, fp
    1624:	4621      	mov	r1, r4
    1626:	9a17      	ldr	r2, [sp, #92]	; 0x5c
    1628:	9805      	ldr	r0, [sp, #20]
    162a:	f000 f84d 	bl	16c8 <_printf_pre_padding>
    162e:	4405      	add	r5, r0
    1630:	e01c      	b.n	166c <_printf_core+0x6a4>
    1632:	9804      	ldr	r0, [sp, #16]
    1634:	2800      	cmp	r0, #0
    1636:	db07      	blt.n	1648 <_printf_core+0x680>
    1638:	e9dd 0103 	ldrd	r0, r1, [sp, #12]
    163c:	4288      	cmp	r0, r1
    163e:	dd03      	ble.n	1648 <_printf_core+0x680>
    1640:	9800      	ldr	r0, [sp, #0]
    1642:	5c40      	ldrb	r0, [r0, r1]
    1644:	9917      	ldr	r1, [sp, #92]	; 0x5c
    1646:	e001      	b.n	164c <_printf_core+0x684>
    1648:	9917      	ldr	r1, [sp, #92]	; 0x5c
    164a:	2030      	movs	r0, #48	; 0x30
    164c:	465a      	mov	r2, fp
    164e:	4790      	blx	r2
    1650:	9804      	ldr	r0, [sp, #16]
    1652:	f105 0501 	add.w	r5, r5, #1
    1656:	1c40      	adds	r0, r0, #1
    1658:	9004      	str	r0, [sp, #16]
    165a:	9801      	ldr	r0, [sp, #4]
    165c:	1e40      	subs	r0, r0, #1
    165e:	9001      	str	r0, [sp, #4]
    1660:	d104      	bne.n	166c <_printf_core+0x6a4>
    1662:	202e      	movs	r0, #46	; 0x2e
    1664:	465a      	mov	r2, fp
    1666:	9917      	ldr	r1, [sp, #92]	; 0x5c
    1668:	4790      	blx	r2
    166a:	1c6d      	adds	r5, r5, #1
    166c:	f1ba 0100 	subs.w	r1, sl, #0
    1670:	f1aa 0a01 	sub.w	sl, sl, #1
    1674:	dcdd      	bgt.n	1632 <_printf_core+0x66a>
    1676:	e005      	b.n	1684 <_printf_core+0x6bc>
    1678:	f817 0b01 	ldrb.w	r0, [r7], #1
    167c:	465a      	mov	r2, fp
    167e:	9917      	ldr	r1, [sp, #92]	; 0x5c
    1680:	4790      	blx	r2
    1682:	1c6d      	adds	r5, r5, #1
    1684:	f1b8 0100 	subs.w	r1, r8, #0
    1688:	f1a8 0801 	sub.w	r8, r8, #1
    168c:	dcf4      	bgt.n	1678 <_printf_core+0x6b0>
    168e:	465b      	mov	r3, fp
    1690:	4621      	mov	r1, r4
    1692:	9a17      	ldr	r2, [sp, #92]	; 0x5c
    1694:	9805      	ldr	r0, [sp, #20]
    1696:	e6ab      	b.n	13f0 <_printf_core+0x428>
    1698:	0000002d 	.word	0x0000002d
    169c:	0000002b 	.word	0x0000002b
    16a0:	00000020 	.word	0x00000020

000016a4 <_printf_post_padding>:
    16a4:	e92d 41f0 	stmdb	sp!, {r4, r5, r6, r7, r8, lr}
    16a8:	4604      	mov	r4, r0
    16aa:	2500      	movs	r5, #0
    16ac:	461e      	mov	r6, r3
    16ae:	4617      	mov	r7, r2
    16b0:	0488      	lsls	r0, r1, #18
    16b2:	d404      	bmi.n	16be <_printf_post_padding+0x1a>
    16b4:	e005      	b.n	16c2 <_printf_post_padding+0x1e>
    16b6:	4639      	mov	r1, r7
    16b8:	2020      	movs	r0, #32
    16ba:	47b0      	blx	r6
    16bc:	1c6d      	adds	r5, r5, #1
    16be:	1e64      	subs	r4, r4, #1
    16c0:	d5f9      	bpl.n	16b6 <_printf_post_padding+0x12>
    16c2:	4628      	mov	r0, r5
    16c4:	e8bd 81f0 	ldmia.w	sp!, {r4, r5, r6, r7, r8, pc}

000016c8 <_printf_pre_padding>:
    16c8:	e92d 41f0 	stmdb	sp!, {r4, r5, r6, r7, r8, lr}
    16cc:	4604      	mov	r4, r0
    16ce:	2500      	movs	r5, #0
    16d0:	461e      	mov	r6, r3
    16d2:	4690      	mov	r8, r2
    16d4:	03c8      	lsls	r0, r1, #15
    16d6:	d501      	bpl.n	16dc <_printf_pre_padding+0x14>
    16d8:	2730      	movs	r7, #48	; 0x30
    16da:	e000      	b.n	16de <_printf_pre_padding+0x16>
    16dc:	2720      	movs	r7, #32
    16de:	0488      	lsls	r0, r1, #18
    16e0:	d504      	bpl.n	16ec <_printf_pre_padding+0x24>
    16e2:	e005      	b.n	16f0 <_printf_pre_padding+0x28>
    16e4:	4641      	mov	r1, r8
    16e6:	4638      	mov	r0, r7
    16e8:	47b0      	blx	r6
    16ea:	1c6d      	adds	r5, r5, #1
    16ec:	1e64      	subs	r4, r4, #1
    16ee:	d5f9      	bpl.n	16e4 <_printf_pre_padding+0x1c>
    16f0:	4628      	mov	r0, r5
    16f2:	e8bd 81f0 	ldmia.w	sp!, {r4, r5, r6, r7, r8, pc}

000016f6 <_snputc>:
    16f6:	684a      	ldr	r2, [r1, #4]
    16f8:	2a00      	cmp	r2, #0
    16fa:	d006      	beq.n	170a <_snputc+0x14>
    16fc:	680a      	ldr	r2, [r1, #0]
    16fe:	1c53      	adds	r3, r2, #1
    1700:	600b      	str	r3, [r1, #0]
    1702:	7010      	strb	r0, [r2, #0]
    1704:	6848      	ldr	r0, [r1, #4]
    1706:	1e40      	subs	r0, r0, #1
    1708:	6048      	str	r0, [r1, #4]
    170a:	4770      	bx	lr

0000170c <active_patch>:
    170c:	b510      	push	{r4, lr}
    170e:	4604      	mov	r4, r0
    1710:	f004 fcc8 	bl	60a4 <update_bits_filter>
    1714:	6821      	ldr	r1, [r4, #0]
    1716:	880a      	ldrh	r2, [r1, #0]
    1718:	2a01      	cmp	r2, #1
    171a:	d004      	beq.n	1726 <active_patch+0x1a>
    171c:	2a02      	cmp	r2, #2
    171e:	d102      	bne.n	1726 <active_patch+0x1a>
    1720:	6848      	ldr	r0, [r1, #4]
    1722:	f000 f91d 	bl	1960 <add_hw_bkpt>
    1726:	2001      	movs	r0, #1
    1728:	7220      	strb	r0, [r4, #8]
    172a:	bd10      	pop	{r4, pc}

0000172c <add_dynamic_patch_to_ctx>:
    172c:	e92d 41f0 	stmdb	sp!, {r4, r5, r6, r7, r8, lr}
    1730:	4607      	mov	r7, r0
    1732:	4817      	ldr	r0, [pc, #92]	; (1790 <add_dynamic_patch_to_ctx+0x64>)
    1734:	6984      	ldr	r4, [r0, #24]
    1736:	2500      	movs	r5, #0
    1738:	f100 0614 	add.w	r6, r0, #20
    173c:	2000      	movs	r0, #0
    173e:	e009      	b.n	1754 <add_dynamic_patch_to_ctx+0x28>
    1740:	683a      	ldr	r2, [r7, #0]
    1742:	68a1      	ldr	r1, [r4, #8]
    1744:	6852      	ldr	r2, [r2, #4]
    1746:	4291      	cmp	r1, r2
    1748:	d101      	bne.n	174e <add_dynamic_patch_to_ctx+0x22>
    174a:	4625      	mov	r5, r4
    174c:	e004      	b.n	1758 <add_dynamic_patch_to_ctx+0x2c>
    174e:	4626      	mov	r6, r4
    1750:	6864      	ldr	r4, [r4, #4]
    1752:	1c40      	adds	r0, r0, #1
    1754:	2c00      	cmp	r4, #0
    1756:	d1f3      	bne.n	1740 <add_dynamic_patch_to_ctx+0x14>
    1758:	b95d      	cbnz	r5, 1772 <add_dynamic_patch_to_ctx+0x46>
    175a:	2806      	cmp	r0, #6
    175c:	dd04      	ble.n	1768 <add_dynamic_patch_to_ctx+0x3c>
    175e:	a00d      	add	r0, pc, #52	; (adr r0, 1794 <add_dynamic_patch_to_ctx+0x68>)
    1760:	f000 fc91 	bl	2086 <debug_log>
    1764:	4635      	mov	r5, r6
    1766:	e004      	b.n	1772 <add_dynamic_patch_to_ctx+0x46>
    1768:	2010      	movs	r0, #16
    176a:	f000 fcf9 	bl	2160 <ebpf_malloc>
    176e:	4605      	mov	r5, r0
    1770:	6075      	str	r5, [r6, #4]
    1772:	2000      	movs	r0, #0
    1774:	6068      	str	r0, [r5, #4]
    1776:	6838      	ldr	r0, [r7, #0]
    1778:	6840      	ldr	r0, [r0, #4]
    177a:	f000 fbe3 	bl	1f44 <calc_bpkt_addr>
    177e:	60a8      	str	r0, [r5, #8]
    1780:	f000 fbf4 	bl	1f6c <calc_bpkt_pc>
    1784:	60e8      	str	r0, [r5, #12]
    1786:	602f      	str	r7, [r5, #0]
    1788:	4628      	mov	r0, r5
    178a:	e8bd 81f0 	ldmia.w	sp!, {r4, r5, r6, r7, r8, pc}
    178e:	0000      	.short	0x0000
    1790:	20001040 	.word	0x20001040
    1794:	6e726157 	.word	0x6e726157
    1798:	3a676e69 	.word	0x3a676e69
    179c:	6e796420 	.word	0x6e796420
    17a0:	63696d61 	.word	0x63696d61
    17a4:	74617020 	.word	0x74617020
    17a8:	65206863 	.word	0x65206863
    17ac:	65656378 	.word	0x65656378
    17b0:	68742064 	.word	0x68742064
    17b4:	616d2065 	.word	0x616d2065
    17b8:	756d6978 	.word	0x756d6978
    17bc:	756e206d 	.word	0x756e206d
    17c0:	7265626d 	.word	0x7265626d
    17c4:	2e293628 	.word	0x2e293628
    17c8:	0000000a 	.word	0x0000000a

000017cc <add_fpb_bkpt>:
    17cc:	e92d 41f0 	stmdb	sp!, {r4, r5, r6, r7, r8, lr}
    17d0:	b08a      	sub	sp, #40	; 0x28
    17d2:	4604      	mov	r4, r0
    17d4:	4f40      	ldr	r7, [pc, #256]	; (18d8 <add_fpb_bkpt+0x10c>)
    17d6:	783e      	ldrb	r6, [r7, #0]
    17d8:	2218      	movs	r2, #24
    17da:	4940      	ldr	r1, [pc, #256]	; (18dc <add_fpb_bkpt+0x110>)
    17dc:	a804      	add	r0, sp, #16
    17de:	f7fe fe7b 	bl	4d8 <__aeabi_memcpy>
    17e2:	a804      	add	r0, sp, #16
    17e4:	f850 0026 	ldr.w	r0, [r0, r6, lsl #2]
    17e8:	f020 0803 	bic.w	r8, r0, #3
    17ec:	4641      	mov	r1, r8
    17ee:	4620      	mov	r0, r4
    17f0:	f000 fbc6 	bl	1f80 <calc_branch_instr>
    17f4:	f002 f968 	bl	3ac8 <little_endian_16_bit>
    17f8:	4605      	mov	r5, r0
    17fa:	4839      	ldr	r0, [pc, #228]	; (18e0 <add_fpb_bkpt+0x114>)
    17fc:	f020 001f 	bic.w	r0, r0, #31
    1800:	9003      	str	r0, [sp, #12]
    1802:	f024 0401 	bic.w	r4, r4, #1
    1806:	f004 0203 	and.w	r2, r4, #3
    180a:	4643      	mov	r3, r8
    180c:	4621      	mov	r1, r4
    180e:	a035      	add	r0, pc, #212	; (adr r0, 18e4 <add_fpb_bkpt+0x118>)
    1810:	f000 fc39 	bl	2086 <debug_log>
    1814:	4b41      	ldr	r3, [pc, #260]	; (191c <add_fpb_bkpt+0x150>)
    1816:	07a0      	lsls	r0, r4, #30
    1818:	d018      	beq.n	184c <add_fpb_bkpt+0x80>
    181a:	f024 0103 	bic.w	r1, r4, #3
    181e:	6808      	ldr	r0, [r1, #0]
    1820:	9001      	str	r0, [sp, #4]
    1822:	6848      	ldr	r0, [r1, #4]
    1824:	9002      	str	r0, [sp, #8]
    1826:	9a01      	ldr	r2, [sp, #4]
    1828:	9803      	ldr	r0, [sp, #12]
    182a:	f365 421f 	bfi	r2, r5, #16, #16
    182e:	f840 2026 	str.w	r2, [r0, r6, lsl #2]
    1832:	9a02      	ldr	r2, [sp, #8]
    1834:	1c76      	adds	r6, r6, #1
    1836:	f36f 020f 	bfc	r2, #0, #16
    183a:	ea42 4215 	orr.w	r2, r2, r5, lsr #16
    183e:	f840 2026 	str.w	r2, [r0, r6, lsl #2]
    1842:	1d0a      	adds	r2, r1, #4
    1844:	2000      	movs	r0, #0
    1846:	787e      	ldrb	r6, [r7, #1]
    1848:	1e76      	subs	r6, r6, #1
    184a:	e02f      	b.n	18ac <add_fpb_bkpt+0xe0>
    184c:	9803      	ldr	r0, [sp, #12]
    184e:	f840 5026 	str.w	r5, [r0, r6, lsl #2]
    1852:	f044 0201 	orr.w	r2, r4, #1
    1856:	2000      	movs	r0, #0
    1858:	787e      	ldrb	r6, [r7, #1]
    185a:	e00f      	b.n	187c <add_fpb_bkpt+0xb0>
    185c:	eb03 0180 	add.w	r1, r3, r0, lsl #2
    1860:	f8d1 c008 	ldr.w	ip, [r1, #8]
    1864:	4594      	cmp	ip, r2
    1866:	d002      	beq.n	186e <add_fpb_bkpt+0xa2>
    1868:	6889      	ldr	r1, [r1, #8]
    186a:	42a1      	cmp	r1, r4
    186c:	d105      	bne.n	187a <add_fpb_bkpt+0xae>
    186e:	eb03 0180 	add.w	r1, r3, r0, lsl #2
    1872:	608a      	str	r2, [r1, #8]
    1874:	b00a      	add	sp, #40	; 0x28
    1876:	e8bd 81f0 	ldmia.w	sp!, {r4, r5, r6, r7, r8, pc}
    187a:	1c40      	adds	r0, r0, #1
    187c:	4286      	cmp	r6, r0
    187e:	dced      	bgt.n	185c <add_fpb_bkpt+0x90>
    1880:	7838      	ldrb	r0, [r7, #0]
    1882:	eb03 0180 	add.w	r1, r3, r0, lsl #2
    1886:	608a      	str	r2, [r1, #8]
    1888:	1c40      	adds	r0, r0, #1
    188a:	7038      	strb	r0, [r7, #0]
    188c:	e01a      	b.n	18c4 <add_fpb_bkpt+0xf8>
    188e:	eb03 0c80 	add.w	ip, r3, r0, lsl #2
    1892:	f8dc c008 	ldr.w	ip, [ip, #8]
    1896:	458c      	cmp	ip, r1
    1898:	d107      	bne.n	18aa <add_fpb_bkpt+0xde>
    189a:	f100 0c01 	add.w	ip, r0, #1
    189e:	eb03 0c8c 	add.w	ip, r3, ip, lsl #2
    18a2:	f8dc c008 	ldr.w	ip, [ip, #8]
    18a6:	4594      	cmp	ip, r2
    18a8:	d0e4      	beq.n	1874 <add_fpb_bkpt+0xa8>
    18aa:	1c40      	adds	r0, r0, #1
    18ac:	4286      	cmp	r6, r0
    18ae:	dcee      	bgt.n	188e <add_fpb_bkpt+0xc2>
    18b0:	7838      	ldrb	r0, [r7, #0]
    18b2:	eb03 0680 	add.w	r6, r3, r0, lsl #2
    18b6:	60b1      	str	r1, [r6, #8]
    18b8:	1c41      	adds	r1, r0, #1
    18ba:	eb03 0181 	add.w	r1, r3, r1, lsl #2
    18be:	608a      	str	r2, [r1, #8]
    18c0:	1c80      	adds	r0, r0, #2
    18c2:	7038      	strb	r0, [r7, #0]
    18c4:	4623      	mov	r3, r4
    18c6:	4642      	mov	r2, r8
    18c8:	a903      	add	r1, sp, #12
    18ca:	a015      	add	r0, pc, #84	; (adr r0, 1920 <add_fpb_bkpt+0x154>)
    18cc:	9500      	str	r5, [sp, #0]
    18ce:	f000 fbda 	bl	2086 <debug_log>
    18d2:	7838      	ldrb	r0, [r7, #0]
    18d4:	e7ce      	b.n	1874 <add_fpb_bkpt+0xa8>
    18d6:	0000      	.short	0x0000
    18d8:	200000de 	.word	0x200000de
    18dc:	00006174 	.word	0x00006174
    18e0:	20001083 	.word	0x20001083
    18e4:	74736e69 	.word	0x74736e69
    18e8:	20736920 	.word	0x20736920
    18ec:	666c6168 	.word	0x666c6168
    18f0:	726f7720 	.word	0x726f7720
    18f4:	30203a64 	.word	0x30203a64
    18f8:	38302578 	.word	0x38302578
    18fc:	64252078 	.word	0x64252078
    1900:	61727420 	.word	0x61727420
    1904:	6c6f706d 	.word	0x6c6f706d
    1908:	5f656e69 	.word	0x5f656e69
    190c:	72646461 	.word	0x72646461
    1910:	7830203a 	.word	0x7830203a
    1914:	78383025 	.word	0x78383025
    1918:	0000000a 	.word	0x0000000a
    191c:	e0002000 	.word	0xe0002000
    1920:	2578305b 	.word	0x2578305b
    1924:	5d783830 	.word	0x5d783830
    1928:	62706620 	.word	0x62706620
    192c:	6d756a20 	.word	0x6d756a20
    1930:	6f742070 	.word	0x6f742070
    1934:	7830203a 	.word	0x7830203a
    1938:	78383025 	.word	0x78383025
    193c:	736e6920 	.word	0x736e6920
    1940:	30203a74 	.word	0x30203a74
    1944:	38302578 	.word	0x38302578
    1948:	756a2078 	.word	0x756a2078
    194c:	695f706d 	.word	0x695f706d
    1950:	3a74736e 	.word	0x3a74736e
    1954:	25783020 	.word	0x25783020
    1958:	0a783830 	.word	0x0a783830
    195c:	00000000 	.word	0x00000000

00001960 <add_hw_bkpt>:
    1960:	b510      	push	{r4, lr}
    1962:	4604      	mov	r4, r0
    1964:	4b14      	ldr	r3, [pc, #80]	; (19b8 <add_hw_bkpt+0x58>)
    1966:	2200      	movs	r2, #0
    1968:	1c59      	adds	r1, r3, #1
    196a:	7818      	ldrb	r0, [r3, #0]
    196c:	2800      	cmp	r0, #0
    196e:	d107      	bne.n	1980 <add_hw_bkpt+0x20>
    1970:	700a      	strb	r2, [r1, #0]
    1972:	4812      	ldr	r0, [pc, #72]	; (19bc <add_hw_bkpt+0x5c>)
    1974:	6800      	ldr	r0, [r0, #0]
    1976:	f001 fded 	bl	3554 <get_hw_bkpt_num>
    197a:	7048      	strb	r0, [r1, #1]
    197c:	2001      	movs	r0, #1
    197e:	7018      	strb	r0, [r3, #0]
    1980:	f1b4 5f00 	cmp.w	r4, #536870912	; 0x20000000
    1984:	d305      	bcc.n	1992 <add_hw_bkpt+0x32>
    1986:	a00e      	add	r0, pc, #56	; (adr r0, 19c0 <add_hw_bkpt+0x60>)
    1988:	f000 fb7d 	bl	2086 <debug_log>
    198c:	f04f 30ff 	mov.w	r0, #4294967295	; 0xffffffff
    1990:	bd10      	pop	{r4, pc}
    1992:	7808      	ldrb	r0, [r1, #0]
    1994:	2806      	cmp	r0, #6
    1996:	d300      	bcc.n	199a <add_hw_bkpt+0x3a>
    1998:	700a      	strb	r2, [r1, #0]
    199a:	4811      	ldr	r0, [pc, #68]	; (19e0 <add_hw_bkpt+0x80>)
    199c:	f890 0028 	ldrb.w	r0, [r0, #40]	; 0x28
    19a0:	b120      	cbz	r0, 19ac <add_hw_bkpt+0x4c>
    19a2:	4620      	mov	r0, r4
    19a4:	e8bd 4010 	ldmia.w	sp!, {r4, lr}
    19a8:	f7ff bf10 	b.w	17cc <add_fpb_bkpt>
    19ac:	4620      	mov	r0, r4
    19ae:	e8bd 4010 	ldmia.w	sp!, {r4, lr}
    19b2:	f000 b817 	b.w	19e4 <add_normal_bkpt>
    19b6:	0000      	.short	0x0000
    19b8:	200000dd 	.word	0x200000dd
    19bc:	e0002000 	.word	0xe0002000
    19c0:	6e6e6143 	.word	0x6e6e6143
    19c4:	6120746f 	.word	0x6120746f
    19c8:	62206464 	.word	0x62206464
    19cc:	6b616572 	.word	0x6b616572
    19d0:	6e696f70 	.word	0x6e696f70
    19d4:	6e692074 	.word	0x6e692074
    19d8:	4d415220 	.word	0x4d415220
    19dc:	00000a2e 	.word	0x00000a2e
    19e0:	20001064 	.word	0x20001064

000019e4 <add_normal_bkpt>:
    19e4:	b530      	push	{r4, r5, lr}
    19e6:	0781      	lsls	r1, r0, #30
    19e8:	d401      	bmi.n	19ee <add_normal_bkpt+0xa>
    19ea:	2101      	movs	r1, #1
    19ec:	e000      	b.n	19f0 <add_normal_bkpt+0xc>
    19ee:	2102      	movs	r1, #2
    19f0:	f020 0003 	bic.w	r0, r0, #3
    19f4:	ea40 7181 	orr.w	r1, r0, r1, lsl #30
    19f8:	1c49      	adds	r1, r1, #1
    19fa:	2000      	movs	r0, #0
    19fc:	4d0a      	ldr	r5, [pc, #40]	; (1a28 <add_normal_bkpt+0x44>)
    19fe:	4a09      	ldr	r2, [pc, #36]	; (1a24 <add_normal_bkpt+0x40>)
    1a00:	786b      	ldrb	r3, [r5, #1]
    1a02:	e005      	b.n	1a10 <add_normal_bkpt+0x2c>
    1a04:	eb02 0480 	add.w	r4, r2, r0, lsl #2
    1a08:	68a4      	ldr	r4, [r4, #8]
    1a0a:	428c      	cmp	r4, r1
    1a0c:	d008      	beq.n	1a20 <add_normal_bkpt+0x3c>
    1a0e:	1c40      	adds	r0, r0, #1
    1a10:	4283      	cmp	r3, r0
    1a12:	dcf7      	bgt.n	1a04 <add_normal_bkpt+0x20>
    1a14:	7828      	ldrb	r0, [r5, #0]
    1a16:	eb02 0280 	add.w	r2, r2, r0, lsl #2
    1a1a:	6091      	str	r1, [r2, #8]
    1a1c:	1c41      	adds	r1, r0, #1
    1a1e:	7029      	strb	r1, [r5, #0]
    1a20:	bd30      	pop	{r4, r5, pc}
    1a22:	0000      	.short	0x0000
    1a24:	e0002000 	.word	0xe0002000
    1a28:	200000de 	.word	0x200000de

00001a2c <app_error_fault_handler>:
    1a2c:	b672      	cpsid	i
    1a2e:	f002 ff3f 	bl	48b0 <nrf_log_panic>
    1a32:	f002 fd79 	bl	4528 <nrf_log_frontend_dequeue>
    1a36:	2800      	cmp	r0, #0
    1a38:	d1fb      	bne.n	1a32 <app_error_fault_handler+0x6>
    1a3a:	4811      	ldr	r0, [pc, #68]	; (1a80 <app_error_fault_handler+0x54>)
    1a3c:	4911      	ldr	r1, [pc, #68]	; (1a84 <app_error_fault_handler+0x58>)
    1a3e:	1a40      	subs	r0, r0, r1
    1a40:	08c4      	lsrs	r4, r0, #3
    1a42:	2001      	movs	r0, #1
    1a44:	eb00 4004 	add.w	r0, r0, r4, lsl #16
    1a48:	a10f      	add	r1, pc, #60	; (adr r1, 1a88 <app_error_fault_handler+0x5c>)
    1a4a:	f002 fe97 	bl	477c <nrf_log_frontend_std_0>
    1a4e:	4811      	ldr	r0, [pc, #68]	; (1a94 <app_error_fault_handler+0x68>)
    1a50:	6800      	ldr	r0, [r0, #0]
    1a52:	07c0      	lsls	r0, r0, #31
    1a54:	d000      	beq.n	1a58 <app_error_fault_handler+0x2c>
    1a56:	be00      	bkpt	0x0000
    1a58:	2002      	movs	r0, #2
    1a5a:	eb00 4004 	add.w	r0, r0, r4, lsl #16
    1a5e:	a10e      	add	r1, pc, #56	; (adr r1, 1a98 <app_error_fault_handler+0x6c>)
    1a60:	f002 fe8c 	bl	477c <nrf_log_frontend_std_0>
    1a64:	f3bf 8f4f 	dsb	sy
    1a68:	480a      	ldr	r0, [pc, #40]	; (1a94 <app_error_fault_handler+0x68>)
    1a6a:	38e4      	subs	r0, #228	; 0xe4
    1a6c:	6801      	ldr	r1, [r0, #0]
    1a6e:	4a0e      	ldr	r2, [pc, #56]	; (1aa8 <app_error_fault_handler+0x7c>)
    1a70:	f401 61e0 	and.w	r1, r1, #1792	; 0x700
    1a74:	4311      	orrs	r1, r2
    1a76:	6001      	str	r1, [r0, #0]
    1a78:	f3bf 8f4f 	dsb	sy
    1a7c:	bf00      	nop
    1a7e:	e7fd      	b.n	1a7c <app_error_fault_handler+0x50>
    1a80:	000064b0 	.word	0x000064b0
    1a84:	00000000 	.word	0x00000000
    1a88:	61746146 	.word	0x61746146
    1a8c:	7265206c 	.word	0x7265206c
    1a90:	00726f72 	.word	0x00726f72
    1a94:	e000edf0 	.word	0xe000edf0
    1a98:	74737953 	.word	0x74737953
    1a9c:	72206d65 	.word	0x72206d65
    1aa0:	74657365 	.word	0x74657365
    1aa4:	00000000 	.word	0x00000000
    1aa8:	05fa0004 	.word	0x05fa0004

00001aac <app_error_handler_bare>:
    1aac:	b50e      	push	{r1, r2, r3, lr}
    1aae:	2100      	movs	r1, #0
    1ab0:	9100      	str	r1, [sp, #0]
    1ab2:	9101      	str	r1, [sp, #4]
    1ab4:	9002      	str	r0, [sp, #8]
    1ab6:	466a      	mov	r2, sp
    1ab8:	f244 0001 	movw	r0, #16385	; 0x4001
    1abc:	f7ff ffb6 	bl	1a2c <app_error_fault_handler>
    1ac0:	bd0e      	pop	{r1, r2, r3, pc}

00001ac2 <app_fifo_get>:
    1ac2:	b510      	push	{r4, lr}
    1ac4:	6882      	ldr	r2, [r0, #8]
    1ac6:	68c3      	ldr	r3, [r0, #12]
    1ac8:	1a9a      	subs	r2, r3, r2
    1aca:	2a00      	cmp	r2, #0
    1acc:	d003      	beq.n	1ad6 <app_fifo_get+0x14>
    1ace:	f001 fc1d 	bl	330c <fifo_get>
    1ad2:	2000      	movs	r0, #0
    1ad4:	bd10      	pop	{r4, pc}
    1ad6:	2005      	movs	r0, #5
    1ad8:	bd10      	pop	{r4, pc}

00001ada <app_fifo_init>:
    1ada:	2900      	cmp	r1, #0
    1adc:	d005      	beq.n	1aea <app_fifo_init+0x10>
    1ade:	b112      	cbz	r2, 1ae6 <app_fifo_init+0xc>
    1ae0:	1e53      	subs	r3, r2, #1
    1ae2:	4213      	tst	r3, r2
    1ae4:	d003      	beq.n	1aee <app_fifo_init+0x14>
    1ae6:	2009      	movs	r0, #9
    1ae8:	4770      	bx	lr
    1aea:	200e      	movs	r0, #14
    1aec:	4770      	bx	lr
    1aee:	6001      	str	r1, [r0, #0]
    1af0:	8083      	strh	r3, [r0, #4]
    1af2:	2100      	movs	r1, #0
    1af4:	6081      	str	r1, [r0, #8]
    1af6:	60c1      	str	r1, [r0, #12]
    1af8:	2000      	movs	r0, #0
    1afa:	4770      	bx	lr

00001afc <app_fifo_put>:
    1afc:	b510      	push	{r4, lr}
    1afe:	6882      	ldr	r2, [r0, #8]
    1b00:	68c3      	ldr	r3, [r0, #12]
    1b02:	1a9a      	subs	r2, r3, r2
    1b04:	8883      	ldrh	r3, [r0, #4]
    1b06:	429a      	cmp	r2, r3
    1b08:	d803      	bhi.n	1b12 <app_fifo_put+0x16>
    1b0a:	f001 fc09 	bl	3320 <fifo_put>
    1b0e:	2000      	movs	r0, #0
    1b10:	bd10      	pop	{r4, pc}
    1b12:	2004      	movs	r0, #4
    1b14:	bd10      	pop	{r4, pc}
	...

00001b18 <app_uart_get>:
    1b18:	b570      	push	{r4, r5, r6, lr}
    1b1a:	4e0a      	ldr	r6, [pc, #40]	; (1b44 <app_uart_get+0x2c>)
    1b1c:	78b4      	ldrb	r4, [r6, #2]
    1b1e:	4601      	mov	r1, r0
    1b20:	4809      	ldr	r0, [pc, #36]	; (1b48 <app_uart_get+0x30>)
    1b22:	f7ff ffce 	bl	1ac2 <app_fifo_get>
    1b26:	4605      	mov	r5, r0
    1b28:	b14c      	cbz	r4, 1b3e <app_uart_get+0x26>
    1b2a:	2000      	movs	r0, #0
    1b2c:	70b0      	strb	r0, [r6, #2]
    1b2e:	1c71      	adds	r1, r6, #1
    1b30:	2201      	movs	r2, #1
    1b32:	1dc8      	adds	r0, r1, #7
    1b34:	f002 fa48 	bl	3fc8 <nrf_drv_uart_rx>
    1b38:	b108      	cbz	r0, 1b3e <app_uart_get+0x26>
    1b3a:	f7ff ffb7 	bl	1aac <app_error_handler_bare>
    1b3e:	4628      	mov	r0, r5
    1b40:	bd70      	pop	{r4, r5, r6, pc}
    1b42:	0000      	.short	0x0000
    1b44:	20000020 	.word	0x20000020
    1b48:	20000658 	.word	0x20000658

00001b4c <app_uart_init>:
    1b4c:	b5f0      	push	{r4, r5, r6, r7, lr}
    1b4e:	b089      	sub	sp, #36	; 0x24
    1b50:	4604      	mov	r4, r0
    1b52:	460d      	mov	r5, r1
    1b54:	461f      	mov	r7, r3
    1b56:	4e26      	ldr	r6, [pc, #152]	; (1bf0 <app_uart_init+0xa4>)
    1b58:	6072      	str	r2, [r6, #4]
    1b5a:	2d00      	cmp	r5, #0
    1b5c:	d01b      	beq.n	1b96 <app_uart_init+0x4a>
    1b5e:	88a8      	ldrh	r0, [r5, #4]
    1b60:	6829      	ldr	r1, [r5, #0]
    1b62:	b282      	uxth	r2, r0
    1b64:	4823      	ldr	r0, [pc, #140]	; (1bf4 <app_uart_init+0xa8>)
    1b66:	f7ff ffb8 	bl	1ada <app_fifo_init>
    1b6a:	2800      	cmp	r0, #0
    1b6c:	d114      	bne.n	1b98 <app_uart_init+0x4c>
    1b6e:	89a8      	ldrh	r0, [r5, #12]
    1b70:	68a9      	ldr	r1, [r5, #8]
    1b72:	b282      	uxth	r2, r0
    1b74:	481f      	ldr	r0, [pc, #124]	; (1bf4 <app_uart_init+0xa8>)
    1b76:	3010      	adds	r0, #16
    1b78:	f7ff ffaf 	bl	1ada <app_fifo_init>
    1b7c:	2800      	cmp	r0, #0
    1b7e:	d10b      	bne.n	1b98 <app_uart_init+0x4c>
    1b80:	2220      	movs	r2, #32
    1b82:	491d      	ldr	r1, [pc, #116]	; (1bf8 <app_uart_init+0xac>)
    1b84:	a801      	add	r0, sp, #4
    1b86:	f7fe fca7 	bl	4d8 <__aeabi_memcpy>
    1b8a:	6960      	ldr	r0, [r4, #20]
    1b8c:	9007      	str	r0, [sp, #28]
    1b8e:	7c20      	ldrb	r0, [r4, #16]
    1b90:	b120      	cbz	r0, 1b9c <app_uart_init+0x50>
    1b92:	2001      	movs	r0, #1
    1b94:	e003      	b.n	1b9e <app_uart_init+0x52>
    1b96:	2007      	movs	r0, #7
    1b98:	b009      	add	sp, #36	; 0x24
    1b9a:	bdf0      	pop	{r4, r5, r6, r7, pc}
    1b9c:	2000      	movs	r0, #0
    1b9e:	f88d 0018 	strb.w	r0, [sp, #24]
    1ba2:	f88d 7020 	strb.w	r7, [sp, #32]
    1ba6:	7c60      	ldrb	r0, [r4, #17]
    1ba8:	b108      	cbz	r0, 1bae <app_uart_init+0x62>
    1baa:	200e      	movs	r0, #14
    1bac:	e000      	b.n	1bb0 <app_uart_init+0x64>
    1bae:	2000      	movs	r0, #0
    1bb0:	f88d 0019 	strb.w	r0, [sp, #25]
    1bb4:	68e0      	ldr	r0, [r4, #12]
    1bb6:	9003      	str	r0, [sp, #12]
    1bb8:	68a0      	ldr	r0, [r4, #8]
    1bba:	9004      	str	r0, [sp, #16]
    1bbc:	6820      	ldr	r0, [r4, #0]
    1bbe:	9002      	str	r0, [sp, #8]
    1bc0:	6860      	ldr	r0, [r4, #4]
    1bc2:	9001      	str	r0, [sp, #4]
    1bc4:	480a      	ldr	r0, [pc, #40]	; (1bf0 <app_uart_init+0xa4>)
    1bc6:	4a0d      	ldr	r2, [pc, #52]	; (1bfc <app_uart_init+0xb0>)
    1bc8:	a901      	add	r1, sp, #4
    1bca:	3008      	adds	r0, #8
    1bcc:	f002 f9c8 	bl	3f60 <nrf_drv_uart_init>
    1bd0:	2800      	cmp	r0, #0
    1bd2:	d1e1      	bne.n	1b98 <app_uart_init+0x4c>
    1bd4:	70b0      	strb	r0, [r6, #2]
    1bd6:	6820      	ldr	r0, [r4, #0]
    1bd8:	1c40      	adds	r0, r0, #1
    1bda:	d006      	beq.n	1bea <app_uart_init+0x9e>
    1bdc:	4904      	ldr	r1, [pc, #16]	; (1bf0 <app_uart_init+0xa4>)
    1bde:	2201      	movs	r2, #1
    1be0:	1c49      	adds	r1, r1, #1
    1be2:	1dc8      	adds	r0, r1, #7
    1be4:	f002 f9f0 	bl	3fc8 <nrf_drv_uart_rx>
    1be8:	e7d6      	b.n	1b98 <app_uart_init+0x4c>
    1bea:	2000      	movs	r0, #0
    1bec:	e7d4      	b.n	1b98 <app_uart_init+0x4c>
    1bee:	0000      	.short	0x0000
    1bf0:	20000020 	.word	0x20000020
    1bf4:	20000658 	.word	0x20000658
    1bf8:	00006134 	.word	0x00006134
    1bfc:	00005c85 	.word	0x00005c85

00001c00 <app_uart_put>:
    1c00:	b510      	push	{r4, lr}
    1c02:	4601      	mov	r1, r0
    1c04:	4810      	ldr	r0, [pc, #64]	; (1c48 <app_uart_put+0x48>)
    1c06:	f7ff ff79 	bl	1afc <app_fifo_put>
    1c0a:	4604      	mov	r4, r0
    1c0c:	b9cc      	cbnz	r4, 1c42 <app_uart_put+0x42>
    1c0e:	480f      	ldr	r0, [pc, #60]	; (1c4c <app_uart_put+0x4c>)
    1c10:	490f      	ldr	r1, [pc, #60]	; (1c50 <app_uart_put+0x50>)
    1c12:	7802      	ldrb	r2, [r0, #0]
    1c14:	5c89      	ldrb	r1, [r1, r2]
    1c16:	b119      	cbz	r1, 1c20 <app_uart_put+0x20>
    1c18:	1d00      	adds	r0, r0, #4
    1c1a:	f003 f993 	bl	4f44 <nrfx_uarte_tx_in_progress>
    1c1e:	e002      	b.n	1c26 <app_uart_put+0x26>
    1c20:	300c      	adds	r0, #12
    1c22:	f003 f86b 	bl	4cfc <nrfx_uart_tx_in_progress>
    1c26:	b960      	cbnz	r0, 1c42 <app_uart_put+0x42>
    1c28:	4908      	ldr	r1, [pc, #32]	; (1c4c <app_uart_put+0x4c>)
    1c2a:	4807      	ldr	r0, [pc, #28]	; (1c48 <app_uart_put+0x48>)
    1c2c:	3908      	subs	r1, #8
    1c2e:	f7ff ff48 	bl	1ac2 <app_fifo_get>
    1c32:	b930      	cbnz	r0, 1c42 <app_uart_put+0x42>
    1c34:	4905      	ldr	r1, [pc, #20]	; (1c4c <app_uart_put+0x4c>)
    1c36:	2201      	movs	r2, #1
    1c38:	3908      	subs	r1, #8
    1c3a:	4804      	ldr	r0, [pc, #16]	; (1c4c <app_uart_put+0x4c>)
    1c3c:	f002 f9d4 	bl	3fe8 <nrf_drv_uart_tx>
    1c40:	4604      	mov	r4, r0
    1c42:	4620      	mov	r0, r4
    1c44:	bd10      	pop	{r4, pc}
    1c46:	0000      	.short	0x0000
    1c48:	20000668 	.word	0x20000668
    1c4c:	20000028 	.word	0x20000028
    1c50:	20000000 	.word	0x20000000

00001c54 <app_util_critical_region_enter>:
    1c54:	f000 b802 	b.w	1c5c <app_util_disable_irq>

00001c58 <app_util_critical_region_exit>:
    1c58:	f000 b808 	b.w	1c6c <app_util_enable_irq>

00001c5c <app_util_disable_irq>:
    1c5c:	b672      	cpsid	i
    1c5e:	4802      	ldr	r0, [pc, #8]	; (1c68 <app_util_disable_irq+0xc>)
    1c60:	6801      	ldr	r1, [r0, #0]
    1c62:	1c49      	adds	r1, r1, #1
    1c64:	6001      	str	r1, [r0, #0]
    1c66:	4770      	bx	lr
    1c68:	2000001c 	.word	0x2000001c

00001c6c <app_util_enable_irq>:
    1c6c:	4903      	ldr	r1, [pc, #12]	; (1c7c <app_util_enable_irq+0x10>)
    1c6e:	6808      	ldr	r0, [r1, #0]
    1c70:	1e40      	subs	r0, r0, #1
    1c72:	6008      	str	r0, [r1, #0]
    1c74:	2800      	cmp	r0, #0
    1c76:	d100      	bne.n	1c7a <app_util_enable_irq+0xe>
    1c78:	b662      	cpsie	i
    1c7a:	4770      	bx	lr
    1c7c:	2000001c 	.word	0x2000001c

00001c80 <apply_config>:
    1c80:	b570      	push	{r4, r5, r6, lr}
    1c82:	4605      	mov	r5, r0
    1c84:	460c      	mov	r4, r1
    1c86:	6820      	ldr	r0, [r4, #0]
    1c88:	1c41      	adds	r1, r0, #1
    1c8a:	d004      	beq.n	1c96 <apply_config+0x16>
    1c8c:	f002 fb67 	bl	435e <nrf_gpio_pin_set>
    1c90:	6820      	ldr	r0, [r4, #0]
    1c92:	f002 faf8 	bl	4286 <nrf_gpio_cfg_output>
    1c96:	6860      	ldr	r0, [r4, #4]
    1c98:	1c41      	adds	r1, r0, #1
    1c9a:	d002      	beq.n	1ca2 <apply_config+0x22>
    1c9c:	2100      	movs	r1, #0
    1c9e:	f002 fae0 	bl	4262 <nrf_gpio_cfg_input>
    1ca2:	6828      	ldr	r0, [r5, #0]
    1ca4:	69a1      	ldr	r1, [r4, #24]
    1ca6:	f8c0 1524 	str.w	r1, [r0, #1316]	; 0x524
    1caa:	7d60      	ldrb	r0, [r4, #21]
    1cac:	7d22      	ldrb	r2, [r4, #20]
    1cae:	6829      	ldr	r1, [r5, #0]
    1cb0:	4310      	orrs	r0, r2
    1cb2:	f8c1 056c 	str.w	r0, [r1, #1388]	; 0x56c
    1cb6:	e9d4 1200 	ldrd	r1, r2, [r4]
    1cba:	6828      	ldr	r0, [r5, #0]
    1cbc:	f8c0 2514 	str.w	r2, [r0, #1300]	; 0x514
    1cc0:	f8c0 150c 	str.w	r1, [r0, #1292]	; 0x50c
    1cc4:	7d20      	ldrb	r0, [r4, #20]
    1cc6:	2801      	cmp	r0, #1
    1cc8:	d114      	bne.n	1cf4 <apply_config+0x74>
    1cca:	68a0      	ldr	r0, [r4, #8]
    1ccc:	1c41      	adds	r1, r0, #1
    1cce:	d002      	beq.n	1cd6 <apply_config+0x56>
    1cd0:	2100      	movs	r1, #0
    1cd2:	f002 fac6 	bl	4262 <nrf_gpio_cfg_input>
    1cd6:	68e0      	ldr	r0, [r4, #12]
    1cd8:	1c41      	adds	r1, r0, #1
    1cda:	d004      	beq.n	1ce6 <apply_config+0x66>
    1cdc:	f002 fb3f 	bl	435e <nrf_gpio_pin_set>
    1ce0:	68e0      	ldr	r0, [r4, #12]
    1ce2:	f002 fad0 	bl	4286 <nrf_gpio_cfg_output>
    1ce6:	e9d4 2102 	ldrd	r2, r1, [r4, #8]
    1cea:	6828      	ldr	r0, [r5, #0]
    1cec:	f8c0 1508 	str.w	r1, [r0, #1288]	; 0x508
    1cf0:	f8c0 2510 	str.w	r2, [r0, #1296]	; 0x510
    1cf4:	bd70      	pop	{r4, r5, r6, pc}

00001cf6 <apply_config>:
    1cf6:	b570      	push	{r4, r5, r6, lr}
    1cf8:	4605      	mov	r5, r0
    1cfa:	460c      	mov	r4, r1
    1cfc:	6820      	ldr	r0, [r4, #0]
    1cfe:	1c41      	adds	r1, r0, #1
    1d00:	d004      	beq.n	1d0c <apply_config+0x16>
    1d02:	f002 fb36 	bl	4372 <nrf_gpio_pin_set>
    1d06:	6820      	ldr	r0, [r4, #0]
    1d08:	f002 fac7 	bl	429a <nrf_gpio_cfg_output>
    1d0c:	6860      	ldr	r0, [r4, #4]
    1d0e:	1c41      	adds	r1, r0, #1
    1d10:	d002      	beq.n	1d18 <apply_config+0x22>
    1d12:	2100      	movs	r1, #0
    1d14:	f002 faae 	bl	4274 <nrf_gpio_cfg_input>
    1d18:	6828      	ldr	r0, [r5, #0]
    1d1a:	69a1      	ldr	r1, [r4, #24]
    1d1c:	f8c0 1524 	str.w	r1, [r0, #1316]	; 0x524
    1d20:	7d60      	ldrb	r0, [r4, #21]
    1d22:	7d22      	ldrb	r2, [r4, #20]
    1d24:	6829      	ldr	r1, [r5, #0]
    1d26:	4310      	orrs	r0, r2
    1d28:	f8c1 056c 	str.w	r0, [r1, #1388]	; 0x56c
    1d2c:	e9d4 1200 	ldrd	r1, r2, [r4]
    1d30:	6828      	ldr	r0, [r5, #0]
    1d32:	f8c0 150c 	str.w	r1, [r0, #1292]	; 0x50c
    1d36:	f8c0 2514 	str.w	r2, [r0, #1300]	; 0x514
    1d3a:	7d20      	ldrb	r0, [r4, #20]
    1d3c:	2801      	cmp	r0, #1
    1d3e:	d114      	bne.n	1d6a <apply_config+0x74>
    1d40:	68a0      	ldr	r0, [r4, #8]
    1d42:	1c41      	adds	r1, r0, #1
    1d44:	d002      	beq.n	1d4c <apply_config+0x56>
    1d46:	2100      	movs	r1, #0
    1d48:	f002 fa94 	bl	4274 <nrf_gpio_cfg_input>
    1d4c:	68e0      	ldr	r0, [r4, #12]
    1d4e:	1c41      	adds	r1, r0, #1
    1d50:	d004      	beq.n	1d5c <apply_config+0x66>
    1d52:	f002 fb0e 	bl	4372 <nrf_gpio_pin_set>
    1d56:	68e0      	ldr	r0, [r4, #12]
    1d58:	f002 fa9f 	bl	429a <nrf_gpio_cfg_output>
    1d5c:	e9d4 2102 	ldrd	r2, r1, [r4, #8]
    1d60:	6828      	ldr	r0, [r5, #0]
    1d62:	f8c0 1508 	str.w	r1, [r0, #1288]	; 0x508
    1d66:	f8c0 2510 	str.w	r2, [r0, #1296]	; 0x510
    1d6a:	bd70      	pop	{r4, r5, r6, pc}

00001d6c <backend_id_assign>:
    1d6c:	b510      	push	{r4, lr}
    1d6e:	2000      	movs	r0, #0
    1d70:	490a      	ldr	r1, [pc, #40]	; (1d9c <backend_id_assign+0x30>)
    1d72:	f8d1 4410 	ldr.w	r4, [r1, #1040]	; 0x410
    1d76:	4621      	mov	r1, r4
    1d78:	2201      	movs	r2, #1
    1d7a:	e006      	b.n	1d8a <backend_id_assign+0x1e>
    1d7c:	68c9      	ldr	r1, [r1, #12]
    1d7e:	790b      	ldrb	r3, [r1, #4]
    1d80:	4283      	cmp	r3, r0
    1d82:	d101      	bne.n	1d88 <backend_id_assign+0x1c>
    1d84:	2200      	movs	r2, #0
    1d86:	e002      	b.n	1d8e <backend_id_assign+0x22>
    1d88:	6809      	ldr	r1, [r1, #0]
    1d8a:	2900      	cmp	r1, #0
    1d8c:	d1f6      	bne.n	1d7c <backend_id_assign+0x10>
    1d8e:	2a00      	cmp	r2, #0
    1d90:	d103      	bne.n	1d9a <backend_id_assign+0x2e>
    1d92:	1c40      	adds	r0, r0, #1
    1d94:	280a      	cmp	r0, #10
    1d96:	dbee      	blt.n	1d76 <backend_id_assign+0xa>
    1d98:	1e50      	subs	r0, r2, #1
    1d9a:	bd10      	pop	{r4, pc}
    1d9c:	20000810 	.word	0x20000810

00001da0 <bounds_check>:
    1da0:	b530      	push	{r4, r5, lr}
    1da2:	e9dd 5405 	ldrd	r5, r4, [sp, #20]
    1da6:	9b04      	ldr	r3, [sp, #16]
    1da8:	7980      	ldrb	r0, [r0, #6]
    1daa:	2800      	cmp	r0, #0
    1dac:	d00a      	beq.n	1dc4 <bounds_check+0x24>
    1dae:	eb01 00c2 	add.w	r0, r1, r2, lsl #3
    1db2:	b14b      	cbz	r3, 1dc8 <bounds_check+0x28>
    1db4:	4299      	cmp	r1, r3
    1db6:	d307      	bcc.n	1dc8 <bounds_check+0x28>
    1db8:	eb03 02c5 	add.w	r2, r3, r5, lsl #3
    1dbc:	4290      	cmp	r0, r2
    1dbe:	d803      	bhi.n	1dc8 <bounds_check+0x28>
    1dc0:	2001      	movs	r0, #1
    1dc2:	bd30      	pop	{r4, r5, pc}
    1dc4:	2001      	movs	r0, #1
    1dc6:	bd30      	pop	{r4, r5, pc}
    1dc8:	42a1      	cmp	r1, r4
    1dca:	d305      	bcc.n	1dd8 <bounds_check+0x38>
    1dcc:	f504 5480 	add.w	r4, r4, #4096	; 0x1000
    1dd0:	42a0      	cmp	r0, r4
    1dd2:	d801      	bhi.n	1dd8 <bounds_check+0x38>
    1dd4:	2001      	movs	r0, #1
    1dd6:	bd30      	pop	{r4, r5, pc}
    1dd8:	2000      	movs	r0, #0
    1dda:	bd30      	pop	{r4, r5, pc}

00001ddc <bsp_board_buttons_init>:
    1ddc:	b57c      	push	{r2, r3, r4, r5, r6, lr}
    1dde:	2400      	movs	r4, #0
    1de0:	4e06      	ldr	r6, [pc, #24]	; (1dfc <bsp_board_buttons_init+0x20>)
    1de2:	2500      	movs	r5, #0
    1de4:	2303      	movs	r3, #3
    1de6:	5d30      	ldrb	r0, [r6, r4]
    1de8:	2200      	movs	r2, #0
    1dea:	9500      	str	r5, [sp, #0]
    1dec:	4611      	mov	r1, r2
    1dee:	9501      	str	r5, [sp, #4]
    1df0:	f002 f9ec 	bl	41cc <nrf_gpio_cfg>
    1df4:	1c64      	adds	r4, r4, #1
    1df6:	2c04      	cmp	r4, #4
    1df8:	d3f4      	bcc.n	1de4 <bsp_board_buttons_init+0x8>
    1dfa:	bd7c      	pop	{r2, r3, r4, r5, r6, pc}
    1dfc:	00006118 	.word	0x00006118

00001e00 <bsp_board_init>:
    1e00:	b510      	push	{r4, lr}
    1e02:	4604      	mov	r4, r0
    1e04:	07e0      	lsls	r0, r4, #31
    1e06:	d001      	beq.n	1e0c <bsp_board_init+0xc>
    1e08:	f000 f810 	bl	1e2c <bsp_board_leds_init>
    1e0c:	07a0      	lsls	r0, r4, #30
    1e0e:	d503      	bpl.n	1e18 <bsp_board_init+0x18>
    1e10:	e8bd 4010 	ldmia.w	sp!, {r4, lr}
    1e14:	f7ff bfe2 	b.w	1ddc <bsp_board_buttons_init>
    1e18:	bd10      	pop	{r4, pc}
	...

00001e1c <bsp_board_led_off>:
    1e1c:	4902      	ldr	r1, [pc, #8]	; (1e28 <bsp_board_led_off+0xc>)
    1e1e:	5c08      	ldrb	r0, [r1, r0]
    1e20:	2101      	movs	r1, #1
    1e22:	f002 bab0 	b.w	4386 <nrf_gpio_pin_write>
    1e26:	0000      	.short	0x0000
    1e28:	00006114 	.word	0x00006114

00001e2c <bsp_board_leds_init>:
    1e2c:	b57c      	push	{r2, r3, r4, r5, r6, lr}
    1e2e:	2400      	movs	r4, #0
    1e30:	4e08      	ldr	r6, [pc, #32]	; (1e54 <bsp_board_leds_init+0x28>)
    1e32:	2500      	movs	r5, #0
    1e34:	5d30      	ldrb	r0, [r6, r4]
    1e36:	2201      	movs	r2, #1
    1e38:	9500      	str	r5, [sp, #0]
    1e3a:	2300      	movs	r3, #0
    1e3c:	4611      	mov	r1, r2
    1e3e:	9501      	str	r5, [sp, #4]
    1e40:	f002 f9c4 	bl	41cc <nrf_gpio_cfg>
    1e44:	1c64      	adds	r4, r4, #1
    1e46:	2c04      	cmp	r4, #4
    1e48:	d3f4      	bcc.n	1e34 <bsp_board_leds_init+0x8>
    1e4a:	e8bd 407c 	ldmia.w	sp!, {r2, r3, r4, r5, r6, lr}
    1e4e:	f000 b803 	b.w	1e58 <bsp_board_leds_off>
    1e52:	0000      	.short	0x0000
    1e54:	00006114 	.word	0x00006114

00001e58 <bsp_board_leds_off>:
    1e58:	b510      	push	{r4, lr}
    1e5a:	2400      	movs	r4, #0
    1e5c:	4620      	mov	r0, r4
    1e5e:	f7ff ffdd 	bl	1e1c <bsp_board_led_off>
    1e62:	1c64      	adds	r4, r4, #1
    1e64:	2c04      	cmp	r4, #4
    1e66:	d3f9      	bcc.n	1e5c <bsp_board_leds_off+0x4>
    1e68:	bd10      	pop	{r4, pc}
	...

00001e6c <buf_prealloc>:
    1e6c:	e92d 43f8 	stmdb	sp!, {r3, r4, r5, r6, r7, r8, r9, lr}
    1e70:	4606      	mov	r6, r0
    1e72:	4688      	mov	r8, r1
    1e74:	4691      	mov	r9, r2
    1e76:	1cb5      	adds	r5, r6, #2
    1e78:	2701      	movs	r7, #1
    1e7a:	2000      	movs	r0, #0
    1e7c:	f7ff feea 	bl	1c54 <app_util_critical_region_enter>
    1e80:	4c1e      	ldr	r4, [pc, #120]	; (1efc <buf_prealloc+0x90>)
    1e82:	6820      	ldr	r0, [r4, #0]
    1e84:	f8c8 0000 	str.w	r0, [r8]
    1e88:	e9d4 0100 	ldrd	r0, r1, [r4]
    1e8c:	1a40      	subs	r0, r0, r1
    1e8e:	68a1      	ldr	r1, [r4, #8]
    1e90:	1a08      	subs	r0, r1, r0
    1e92:	1c40      	adds	r0, r0, #1
    1e94:	f204 481c 	addw	r8, r4, #1052	; 0x41c
    1e98:	e00f      	b.n	1eba <buf_prealloc+0x4e>
    1e9a:	2101      	movs	r1, #1
    1e9c:	4640      	mov	r0, r8
    1e9e:	f001 ffe9 	bl	3e74 <nrf_atomic_u32_add>
    1ea2:	f001 fe85 	bl	3bb0 <log_skip>
    1ea6:	4601      	mov	r1, r0
    1ea8:	4640      	mov	r0, r8
    1eaa:	f001 ffe3 	bl	3e74 <nrf_atomic_u32_add>
    1eae:	e9d4 0100 	ldrd	r0, r1, [r4]
    1eb2:	1a40      	subs	r0, r0, r1
    1eb4:	68a1      	ldr	r1, [r4, #8]
    1eb6:	1a08      	subs	r0, r1, r0
    1eb8:	1c40      	adds	r0, r0, #1
    1eba:	4285      	cmp	r5, r0
    1ebc:	d8ed      	bhi.n	1e9a <buf_prealloc+0x2e>
    1ebe:	b1bf      	cbz	r7, 1ef0 <buf_prealloc+0x84>
    1ec0:	2000      	movs	r0, #0
    1ec2:	9000      	str	r0, [sp, #0]
    1ec4:	f1b9 0f00 	cmp.w	r9, #0
    1ec8:	d004      	beq.n	1ed4 <buf_prealloc+0x68>
    1eca:	2005      	movs	r0, #5
    1ecc:	f366 1089 	bfi	r0, r6, #6, #4
    1ed0:	9000      	str	r0, [sp, #0]
    1ed2:	e003      	b.n	1edc <buf_prealloc+0x70>
    1ed4:	2006      	movs	r0, #6
    1ed6:	f366 509f 	bfi	r0, r6, #22, #10
    1eda:	9000      	str	r0, [sp, #0]
    1edc:	68a1      	ldr	r1, [r4, #8]
    1ede:	6820      	ldr	r0, [r4, #0]
    1ee0:	4008      	ands	r0, r1
    1ee2:	eb04 0080 	add.w	r0, r4, r0, lsl #2
    1ee6:	9900      	ldr	r1, [sp, #0]
    1ee8:	60c1      	str	r1, [r0, #12]
    1eea:	6820      	ldr	r0, [r4, #0]
    1eec:	4428      	add	r0, r5
    1eee:	6020      	str	r0, [r4, #0]
    1ef0:	2000      	movs	r0, #0
    1ef2:	f7ff feb1 	bl	1c58 <app_util_critical_region_exit>
    1ef6:	4638      	mov	r0, r7
    1ef8:	e8bd 83f8 	ldmia.w	sp!, {r3, r4, r5, r6, r7, r8, r9, pc}
    1efc:	20000810 	.word	0x20000810

00001f00 <buffer_add>:
    1f00:	b570      	push	{r4, r5, r6, lr}
    1f02:	4604      	mov	r4, r0
    1f04:	460d      	mov	r5, r1
    1f06:	2d0a      	cmp	r5, #10
    1f08:	d103      	bne.n	1f12 <buffer_add+0x12>
    1f0a:	210d      	movs	r1, #13
    1f0c:	4620      	mov	r0, r4
    1f0e:	f7ff fff7 	bl	1f00 <buffer_add>
    1f12:	68a0      	ldr	r0, [r4, #8]
    1f14:	1c41      	adds	r1, r0, #1
    1f16:	60a1      	str	r1, [r4, #8]
    1f18:	6821      	ldr	r1, [r4, #0]
    1f1a:	540d      	strb	r5, [r1, r0]
    1f1c:	e9d4 1001 	ldrd	r1, r0, [r4, #4]
    1f20:	4288      	cmp	r0, r1
    1f22:	d304      	bcc.n	1f2e <buffer_add+0x2e>
    1f24:	4620      	mov	r0, r4
    1f26:	e8bd 4070 	ldmia.w	sp!, {r4, r5, r6, lr}
    1f2a:	f002 b87a 	b.w	4022 <nrf_fprintf_buffer_flush>
    1f2e:	bd70      	pop	{r4, r5, r6, pc}

00001f30 <buffer_is_empty>:
    1f30:	4803      	ldr	r0, [pc, #12]	; (1f40 <buffer_is_empty+0x10>)
    1f32:	c803      	ldmia	r0, {r0, r1}
    1f34:	4281      	cmp	r1, r0
    1f36:	d101      	bne.n	1f3c <buffer_is_empty+0xc>
    1f38:	2001      	movs	r0, #1
    1f3a:	4770      	bx	lr
    1f3c:	2000      	movs	r0, #0
    1f3e:	4770      	bx	lr
    1f40:	20000810 	.word	0x20000810

00001f44 <calc_bpkt_addr>:
    1f44:	0781      	lsls	r1, r0, #30
    1f46:	d401      	bmi.n	1f4c <calc_bpkt_addr+0x8>
    1f48:	2101      	movs	r1, #1
    1f4a:	e000      	b.n	1f4e <calc_bpkt_addr+0xa>
    1f4c:	2102      	movs	r1, #2
    1f4e:	f020 0003 	bic.w	r0, r0, #3
    1f52:	ea40 7081 	orr.w	r0, r0, r1, lsl #30
    1f56:	1c40      	adds	r0, r0, #1
    1f58:	0f81      	lsrs	r1, r0, #30
    1f5a:	4a03      	ldr	r2, [pc, #12]	; (1f68 <calc_bpkt_addr+0x24>)
    1f5c:	4010      	ands	r0, r2
    1f5e:	2902      	cmp	r1, #2
    1f60:	d101      	bne.n	1f66 <calc_bpkt_addr+0x22>
    1f62:	f040 0002 	orr.w	r0, r0, #2
    1f66:	4770      	bx	lr
    1f68:	1ffffffc 	.word	0x1ffffffc

00001f6c <calc_bpkt_pc>:
    1f6c:	f020 0001 	bic.w	r0, r0, #1
    1f70:	8801      	ldrh	r1, [r0, #0]
    1f72:	f5b1 4f68 	cmp.w	r1, #59392	; 0xe800
    1f76:	d301      	bcc.n	1f7c <calc_bpkt_pc+0x10>
    1f78:	1d00      	adds	r0, r0, #4
    1f7a:	4770      	bx	lr
    1f7c:	1c80      	adds	r0, r0, #2
    1f7e:	4770      	bx	lr

00001f80 <calc_branch_instr>:
    1f80:	b530      	push	{r4, r5, lr}
    1f82:	f021 0101 	bic.w	r1, r1, #1
    1f86:	f020 0001 	bic.w	r0, r0, #1
    1f8a:	1a08      	subs	r0, r1, r0
    1f8c:	1f00      	subs	r0, r0, #4
    1f8e:	f3c0 3409 	ubfx	r4, r0, #12, #10
    1f92:	f3c0 034a 	ubfx	r3, r0, #1, #11
    1f96:	f3c0 6100 	ubfx	r1, r0, #24, #1
    1f9a:	0dc2      	lsrs	r2, r0, #23
    1f9c:	0d80      	lsrs	r0, r0, #22
    1f9e:	43d2      	mvns	r2, r2
    1fa0:	404a      	eors	r2, r1
    1fa2:	f002 0201 	and.w	r2, r2, #1
    1fa6:	43c0      	mvns	r0, r0
    1fa8:	4048      	eors	r0, r1
    1faa:	f000 0501 	and.w	r5, r0, #1
    1fae:	ea44 2081 	orr.w	r0, r4, r1, lsl #10
    1fb2:	f440 4070 	orr.w	r0, r0, #61440	; 0xf000
    1fb6:	0351      	lsls	r1, r2, #13
    1fb8:	ea41 21c5 	orr.w	r1, r1, r5, lsl #11
    1fbc:	4319      	orrs	r1, r3
    1fbe:	f441 4110 	orr.w	r1, r1, #36864	; 0x9000
    1fc2:	ea41 4000 	orr.w	r0, r1, r0, lsl #16
    1fc6:	bd30      	pop	{r4, r5, pc}

00001fc8 <clear_all_hw_bkpt>:
    1fc8:	b430      	push	{r4, r5}
    1fca:	4a0b      	ldr	r2, [pc, #44]	; (1ff8 <clear_all_hw_bkpt+0x30>)
    1fcc:	6810      	ldr	r0, [r2, #0]
    1fce:	f3c0 1103 	ubfx	r1, r0, #4, #4
    1fd2:	f3c0 3002 	ubfx	r0, r0, #12, #3
    1fd6:	ea41 1300 	orr.w	r3, r1, r0, lsl #4
    1fda:	2000      	movs	r0, #0
    1fdc:	2100      	movs	r1, #0
    1fde:	e003      	b.n	1fe8 <clear_all_hw_bkpt+0x20>
    1fe0:	eb02 0480 	add.w	r4, r2, r0, lsl #2
    1fe4:	60a1      	str	r1, [r4, #8]
    1fe6:	1c40      	adds	r0, r0, #1
    1fe8:	4298      	cmp	r0, r3
    1fea:	d3f9      	bcc.n	1fe0 <clear_all_hw_bkpt+0x18>
    1fec:	4803      	ldr	r0, [pc, #12]	; (1ffc <clear_all_hw_bkpt+0x34>)
    1fee:	7001      	strb	r1, [r0, #0]
    1ff0:	bc30      	pop	{r4, r5}
    1ff2:	f001 b99f 	b.w	3334 <fpb_disable>
    1ff6:	0000      	.short	0x0000
    1ff8:	e0002000 	.word	0xe0002000
    1ffc:	200000de 	.word	0x200000de

00002000 <cli_print_help>:
    2000:	b570      	push	{r4, r5, r6, lr}
    2002:	2605      	movs	r6, #5
    2004:	4809      	ldr	r0, [pc, #36]	; (202c <cli_print_help+0x2c>)
    2006:	f003 fb95 	bl	5734 <shell_printf>
    200a:	2400      	movs	r4, #0
    200c:	4d08      	ldr	r5, [pc, #32]	; (2030 <cli_print_help+0x30>)
    200e:	e00a      	b.n	2026 <cli_print_help+0x26>
    2010:	eb04 0044 	add.w	r0, r4, r4, lsl #1
    2014:	eb05 0180 	add.w	r1, r5, r0, lsl #2
    2018:	688a      	ldr	r2, [r1, #8]
    201a:	f855 1020 	ldr.w	r1, [r5, r0, lsl #2]
    201e:	a005      	add	r0, pc, #20	; (adr r0, 2034 <cli_print_help+0x34>)
    2020:	f003 fb88 	bl	5734 <shell_printf>
    2024:	1c64      	adds	r4, r4, #1
    2026:	42b4      	cmp	r4, r6
    2028:	dbf2      	blt.n	2010 <cli_print_help+0x10>
    202a:	bd70      	pop	{r4, r5, r6, pc}
    202c:	0000627c 	.word	0x0000627c
    2030:	200000a0 	.word	0x200000a0
    2034:	206e7572 	.word	0x206e7572
    2038:	203a6425 	.word	0x203a6425
    203c:	000a7325 	.word	0x000a7325

00002040 <cycles_to_us>:
    2040:	4902      	ldr	r1, [pc, #8]	; (204c <cycles_to_us+0xc>)
    2042:	6809      	ldr	r1, [r1, #0]
    2044:	fbb0 f0f1 	udiv	r0, r0, r1
    2048:	4770      	bx	lr
    204a:	0000      	.short	0x0000
    204c:	200000e0 	.word	0x200000e0

00002050 <darray_get>:
    2050:	6802      	ldr	r2, [r0, #0]
    2052:	428a      	cmp	r2, r1
    2054:	dd03      	ble.n	205e <darray_get+0xe>
    2056:	eb00 0081 	add.w	r0, r0, r1, lsl #2
    205a:	6880      	ldr	r0, [r0, #8]
    205c:	4770      	bx	lr
    205e:	2000      	movs	r0, #0
    2060:	4770      	bx	lr

00002062 <darray_new>:
    2062:	b570      	push	{r4, r5, r6, lr}
    2064:	4606      	mov	r6, r0
    2066:	00b5      	lsls	r5, r6, #2
    2068:	f105 0008 	add.w	r0, r5, #8
    206c:	f000 f878 	bl	2160 <ebpf_malloc>
    2070:	4604      	mov	r4, r0
    2072:	6066      	str	r6, [r4, #4]
    2074:	2000      	movs	r0, #0
    2076:	6020      	str	r0, [r4, #0]
    2078:	4629      	mov	r1, r5
    207a:	f104 0008 	add.w	r0, r4, #8
    207e:	f7fe fa44 	bl	50a <__aeabi_memclr>
    2082:	4620      	mov	r0, r4
    2084:	bd70      	pop	{r4, r5, r6, pc}

00002086 <debug_log>:
    2086:	b40f      	push	{r0, r1, r2, r3}
    2088:	b508      	push	{r3, lr}
    208a:	a803      	add	r0, sp, #12
    208c:	9000      	str	r0, [sp, #0]
    208e:	4669      	mov	r1, sp
    2090:	9802      	ldr	r0, [sp, #8]
    2092:	f001 fd6b 	bl	3b6c <log_print_porting>
    2096:	b001      	add	sp, #4
    2098:	f85d fb14 	ldr.w	pc, [sp], #20

0000209c <debug_monitor_init>:
    209c:	b510      	push	{r4, lr}
    209e:	4810      	ldr	r0, [pc, #64]	; (20e0 <debug_monitor_init+0x44>)
    20a0:	4910      	ldr	r1, [pc, #64]	; (20e4 <debug_monitor_init+0x48>)
    20a2:	0742      	lsls	r2, r0, #29
    20a4:	6002      	str	r2, [r0, #0]
    20a6:	2004      	movs	r0, #4
    20a8:	6008      	str	r0, [r1, #0]
    20aa:	f001 fa87 	bl	35bc <halting_debug_enabled>
    20ae:	b120      	cbz	r0, 20ba <debug_monitor_init+0x1e>
    20b0:	e8bd 4010 	ldmia.w	sp!, {r4, lr}
    20b4:	a00c      	add	r0, pc, #48	; (adr r0, 20e8 <debug_monitor_init+0x4c>)
    20b6:	f7ff bfe6 	b.w	2086 <debug_log>
    20ba:	4c0a      	ldr	r4, [pc, #40]	; (20e4 <debug_monitor_init+0x48>)
    20bc:	34cc      	adds	r4, #204	; 0xcc
    20be:	6820      	ldr	r0, [r4, #0]
    20c0:	f440 3080 	orr.w	r0, r0, #65536	; 0x10000
    20c4:	6020      	str	r0, [r4, #0]
    20c6:	f001 f979 	bl	33bc <fpb_enable>
    20ca:	6821      	ldr	r1, [r4, #0]
    20cc:	a015      	add	r0, pc, #84	; (adr r0, 2124 <debug_monitor_init+0x88>)
    20ce:	f7ff ffda 	bl	2086 <debug_log>
    20d2:	4804      	ldr	r0, [pc, #16]	; (20e4 <debug_monitor_init+0x48>)
    20d4:	3810      	subs	r0, #16
    20d6:	21ff      	movs	r1, #255	; 0xff
    20d8:	6001      	str	r1, [r0, #0]
    20da:	1741      	asrs	r1, r0, #29
    20dc:	6001      	str	r1, [r0, #0]
    20de:	bd10      	pop	{r4, pc}
    20e0:	e000e02c 	.word	0xe000e02c
    20e4:	e000ed30 	.word	0xe000ed30
    20e8:	746c6148 	.word	0x746c6148
    20ec:	20676e69 	.word	0x20676e69
    20f0:	75626544 	.word	0x75626544
    20f4:	6e452067 	.word	0x6e452067
    20f8:	656c6261 	.word	0x656c6261
    20fc:	202d2064 	.word	0x202d2064
    2100:	276e6143 	.word	0x276e6143
    2104:	6e452074 	.word	0x6e452074
    2108:	656c6261 	.word	0x656c6261
    210c:	6e6f4d20 	.word	0x6e6f4d20
    2110:	726f7469 	.word	0x726f7469
    2114:	646f4d20 	.word	0x646f4d20
    2118:	65442065 	.word	0x65442065
    211c:	21677562 	.word	0x21677562
    2120:	00000000 	.word	0x00000000
    2124:	75626564 	.word	0x75626564
    2128:	6f6d5f67 	.word	0x6f6d5f67
    212c:	6f74696e 	.word	0x6f74696e
    2130:	6e695f72 	.word	0x6e695f72
    2134:	73207469 	.word	0x73207469
    2138:	70757465 	.word	0x70757465
    213c:	63686420 	.word	0x63686420
    2140:	203a7273 	.word	0x203a7273
    2144:	000a7525 	.word	0x000a7525

00002148 <dropped_sat16_get>:
    2148:	b510      	push	{r4, lr}
    214a:	2100      	movs	r1, #0
    214c:	4802      	ldr	r0, [pc, #8]	; (2158 <dropped_sat16_get+0x10>)
    214e:	f001 fe9c 	bl	3e8a <nrf_atomic_u32_fetch_store>
    2152:	f380 0010 	usat	r0, #16, r0
    2156:	bd10      	pop	{r4, pc}
    2158:	20000c2c 	.word	0x20000c2c

0000215c <ebpf_calloc>:
    215c:	f7fe b9fe 	b.w	55c <calloc>

00002160 <ebpf_malloc>:
    2160:	f001 bdec 	b.w	3d3c <malloc>

00002164 <ebpf_vm_exec>:
    2164:	e92d 4ff7 	stmdb	sp!, {r0, r1, r2, r4, r5, r6, r7, r8, r9, sl, fp, lr}
    2168:	f5ad 7d54 	sub.w	sp, sp, #848	; 0x350
    216c:	460f      	mov	r7, r1
    216e:	4690      	mov	r8, r2
    2170:	2400      	movs	r4, #0
    2172:	98d4      	ldr	r0, [sp, #848]	; 0x350
    2174:	f8d0 b000 	ldr.w	fp, [r0]
    2178:	2180      	movs	r1, #128	; 0x80
    217a:	a888      	add	r0, sp, #544	; 0x220
    217c:	f7fe f9c5 	bl	50a <__aeabi_memclr>
    2180:	f44f 7100 	mov.w	r1, #512	; 0x200
    2184:	a808      	add	r0, sp, #32
    2186:	f7fe f9c0 	bl	50a <__aeabi_memclr>
    218a:	2600      	movs	r6, #0
    218c:	978a      	str	r7, [sp, #552]	; 0x228
    218e:	968b      	str	r6, [sp, #556]	; 0x22c
    2190:	a888      	add	r0, sp, #544	; 0x220
    2192:	969d      	str	r6, [sp, #628]	; 0x274
    2194:	909c      	str	r0, [sp, #624]	; 0x270
    2196:	f04f 3aff 	mov.w	sl, #4294967295	; 0xffffffff
    219a:	f10d 0920 	add.w	r9, sp, #32
    219e:	ad88      	add	r5, sp, #544	; 0x220
    21a0:	4621      	mov	r1, r4
    21a2:	eb0b 00c1 	add.w	r0, fp, r1, lsl #3
    21a6:	1c64      	adds	r4, r4, #1
    21a8:	c80c      	ldmia	r0!, {r2, r3}
    21aa:	b2a4      	uxth	r4, r4
    21ac:	e9cd 2306 	strd	r2, r3, [sp, #24]
    21b0:	f89d 0018 	ldrb.w	r0, [sp, #24]
    21b4:	286c      	cmp	r0, #108	; 0x6c
    21b6:	d07c      	beq.n	22b2 <ebpf_vm_exec+0x14e>
    21b8:	dc7c      	bgt.n	22b4 <ebpf_vm_exec+0x150>
    21ba:	283d      	cmp	r0, #61	; 0x3d
    21bc:	d07b      	beq.n	22b6 <ebpf_vm_exec+0x152>
    21be:	dc5f      	bgt.n	2280 <ebpf_vm_exec+0x11c>
    21c0:	281f      	cmp	r0, #31
    21c2:	d079      	beq.n	22b8 <ebpf_vm_exec+0x154>
    21c4:	dc30      	bgt.n	2228 <ebpf_vm_exec+0xc4>
    21c6:	2814      	cmp	r0, #20
    21c8:	d077      	beq.n	22ba <ebpf_vm_exec+0x156>
    21ca:	dc22      	bgt.n	2212 <ebpf_vm_exec+0xae>
    21cc:	2807      	cmp	r0, #7
    21ce:	d075      	beq.n	22bc <ebpf_vm_exec+0x158>
    21d0:	dc08      	bgt.n	21e4 <ebpf_vm_exec+0x80>
    21d2:	2804      	cmp	r0, #4
    21d4:	d073      	beq.n	22be <ebpf_vm_exec+0x15a>
    21d6:	2805      	cmp	r0, #5
    21d8:	d1e2      	bne.n	21a0 <ebpf_vm_exec+0x3c>
    21da:	f8bd 001a 	ldrh.w	r0, [sp, #26]
    21de:	4420      	add	r0, r4
    21e0:	b284      	uxth	r4, r0
    21e2:	e7dd      	b.n	21a0 <ebpf_vm_exec+0x3c>
    21e4:	280c      	cmp	r0, #12
    21e6:	d06b      	beq.n	22c0 <ebpf_vm_exec+0x15c>
    21e8:	280f      	cmp	r0, #15
    21ea:	d1d9      	bne.n	21a0 <ebpf_vm_exec+0x3c>
    21ec:	f89d 1019 	ldrb.w	r1, [sp, #25]
    21f0:	f001 000f 	and.w	r0, r1, #15
    21f4:	0909      	lsrs	r1, r1, #4
    21f6:	eb05 00c0 	add.w	r0, r5, r0, lsl #3
    21fa:	eb05 01c1 	add.w	r1, r5, r1, lsl #3
    21fe:	e9d0 3200 	ldrd	r3, r2, [r0]
    2202:	e9d1 c100 	ldrd	ip, r1, [r1]
    2206:	eb13 030c 	adds.w	r3, r3, ip
    220a:	414a      	adcs	r2, r1
    220c:	e9c0 3200 	strd	r3, r2, [r0]
    2210:	e7c6      	b.n	21a0 <ebpf_vm_exec+0x3c>
    2212:	3815      	subs	r0, #21
    2214:	2809      	cmp	r0, #9
    2216:	d2c3      	bcs.n	21a0 <ebpf_vm_exec+0x3c>
    2218:	e8df f000 	tbb	[pc, r0]
    221c:	ebec05ed 	.word	0xebec05ed
    2220:	ea050505 	.word	0xea050505
    2224:	00e9      	.short	0x00e9
    2226:	e7bb      	b.n	21a0 <ebpf_vm_exec+0x3c>
    2228:	282f      	cmp	r0, #47	; 0x2f
    222a:	d070      	beq.n	230e <ebpf_vm_exec+0x1aa>
    222c:	dc0b      	bgt.n	2246 <ebpf_vm_exec+0xe2>
    222e:	f1a0 0024 	sub.w	r0, r0, #36	; 0x24
    2232:	280a      	cmp	r0, #10
    2234:	d2b4      	bcs.n	21a0 <ebpf_vm_exec+0x3c>
    2236:	e8df f000 	tbb	[pc, r0]
    223a:	fcfd      	.short	0xfcfd
    223c:	0505fb05 	.word	0x0505fb05
    2240:	f9fa0505 	.word	0xf9fa0505
    2244:	e7ac      	b.n	21a0 <ebpf_vm_exec+0x3c>
    2246:	2834      	cmp	r0, #52	; 0x34
    2248:	d075      	beq.n	2336 <ebpf_vm_exec+0x1d2>
    224a:	2835      	cmp	r0, #53	; 0x35
    224c:	d074      	beq.n	2338 <ebpf_vm_exec+0x1d4>
    224e:	2837      	cmp	r0, #55	; 0x37
    2250:	d073      	beq.n	233a <ebpf_vm_exec+0x1d6>
    2252:	283c      	cmp	r0, #60	; 0x3c
    2254:	d1a4      	bne.n	21a0 <ebpf_vm_exec+0x3c>
    2256:	f89d 1019 	ldrb.w	r1, [sp, #25]
    225a:	0908      	lsrs	r0, r1, #4
    225c:	eb05 02c0 	add.w	r2, r5, r0, lsl #3
    2260:	e9d2 3200 	ldrd	r3, r2, [r2]
    2264:	4313      	orrs	r3, r2
    2266:	d069      	beq.n	233c <ebpf_vm_exec+0x1d8>
    2268:	f001 010f 	and.w	r1, r1, #15
    226c:	f855 0030 	ldr.w	r0, [r5, r0, lsl #3]
    2270:	f855 2031 	ldr.w	r2, [r5, r1, lsl #3]
    2274:	fbb2 f2f0 	udiv	r2, r2, r0
    2278:	eb05 00c1 	add.w	r0, r5, r1, lsl #3
    227c:	c044      	stmia	r0!, {r2, r6}
    227e:	e78f      	b.n	21a0 <ebpf_vm_exec+0x3c>
    2280:	285d      	cmp	r0, #93	; 0x5d
    2282:	d074      	beq.n	236e <ebpf_vm_exec+0x20a>
    2284:	dc5b      	bgt.n	233e <ebpf_vm_exec+0x1da>
    2286:	284d      	cmp	r0, #77	; 0x4d
    2288:	d072      	beq.n	2370 <ebpf_vm_exec+0x20c>
    228a:	dc2c      	bgt.n	22e6 <ebpf_vm_exec+0x182>
    228c:	2845      	cmp	r0, #69	; 0x45
    228e:	d070      	beq.n	2372 <ebpf_vm_exec+0x20e>
    2290:	dc17      	bgt.n	22c2 <ebpf_vm_exec+0x15e>
    2292:	283f      	cmp	r0, #63	; 0x3f
    2294:	d06e      	beq.n	2374 <ebpf_vm_exec+0x210>
    2296:	2844      	cmp	r0, #68	; 0x44
    2298:	d182      	bne.n	21a0 <ebpf_vm_exec+0x3c>
    229a:	f89d 0019 	ldrb.w	r0, [sp, #25]
    229e:	9a07      	ldr	r2, [sp, #28]
    22a0:	f000 000f 	and.w	r0, r0, #15
    22a4:	f855 1030 	ldr.w	r1, [r5, r0, lsl #3]
    22a8:	eb05 00c0 	add.w	r0, r5, r0, lsl #3
    22ac:	4311      	orrs	r1, r2
    22ae:	c042      	stmia	r0!, {r1, r6}
    22b0:	e776      	b.n	21a0 <ebpf_vm_exec+0x3c>
    22b2:	e1ea      	b.n	268a <ebpf_vm_exec+0x526>
    22b4:	e050      	b.n	2358 <ebpf_vm_exec+0x1f4>
    22b6:	e3ee      	b.n	2a96 <ebpf_vm_exec+0x932>
    22b8:	e2fd      	b.n	28b6 <ebpf_vm_exec+0x752>
    22ba:	e183      	b.n	25c4 <ebpf_vm_exec+0x460>
    22bc:	e2db      	b.n	2876 <ebpf_vm_exec+0x712>
    22be:	e164      	b.n	258a <ebpf_vm_exec+0x426>
    22c0:	e172      	b.n	25a8 <ebpf_vm_exec+0x444>
    22c2:	2847      	cmp	r0, #71	; 0x47
    22c4:	d057      	beq.n	2376 <ebpf_vm_exec+0x212>
    22c6:	284c      	cmp	r0, #76	; 0x4c
    22c8:	d18b      	bne.n	21e2 <ebpf_vm_exec+0x7e>
    22ca:	f89d 0019 	ldrb.w	r0, [sp, #25]
    22ce:	f000 010f 	and.w	r1, r0, #15
    22d2:	0900      	lsrs	r0, r0, #4
    22d4:	f855 2031 	ldr.w	r2, [r5, r1, lsl #3]
    22d8:	f855 0030 	ldr.w	r0, [r5, r0, lsl #3]
    22dc:	4302      	orrs	r2, r0
    22de:	eb05 00c1 	add.w	r0, r5, r1, lsl #3
    22e2:	c044      	stmia	r0!, {r2, r6}
    22e4:	e75c      	b.n	21a0 <ebpf_vm_exec+0x3c>
    22e6:	2855      	cmp	r0, #85	; 0x55
    22e8:	d07d      	beq.n	23e6 <ebpf_vm_exec+0x282>
    22ea:	dc11      	bgt.n	2310 <ebpf_vm_exec+0x1ac>
    22ec:	284f      	cmp	r0, #79	; 0x4f
    22ee:	d07b      	beq.n	23e8 <ebpf_vm_exec+0x284>
    22f0:	2854      	cmp	r0, #84	; 0x54
    22f2:	d18d      	bne.n	2210 <ebpf_vm_exec+0xac>
    22f4:	f89d 0019 	ldrb.w	r0, [sp, #25]
    22f8:	f000 010f 	and.w	r1, r0, #15
    22fc:	f855 0031 	ldr.w	r0, [r5, r1, lsl #3]
    2300:	2800      	cmp	r0, #0
    2302:	d072      	beq.n	23ea <ebpf_vm_exec+0x286>
    2304:	9807      	ldr	r0, [sp, #28]
    2306:	2800      	cmp	r0, #0
    2308:	d0fb      	beq.n	2302 <ebpf_vm_exec+0x19e>
    230a:	2001      	movs	r0, #1
    230c:	e1a6      	b.n	265c <ebpf_vm_exec+0x4f8>
    230e:	e2fa      	b.n	2906 <ebpf_vm_exec+0x7a2>
    2310:	2857      	cmp	r0, #87	; 0x57
    2312:	d06b      	beq.n	23ec <ebpf_vm_exec+0x288>
    2314:	285c      	cmp	r0, #92	; 0x5c
    2316:	d186      	bne.n	2226 <ebpf_vm_exec+0xc2>
    2318:	f89d 0019 	ldrb.w	r0, [sp, #25]
    231c:	f000 010f 	and.w	r1, r0, #15
    2320:	f855 2031 	ldr.w	r2, [r5, r1, lsl #3]
    2324:	2a00      	cmp	r2, #0
    2326:	d067      	beq.n	23f8 <ebpf_vm_exec+0x294>
    2328:	0900      	lsrs	r0, r0, #4
    232a:	f855 0030 	ldr.w	r0, [r5, r0, lsl #3]
    232e:	2800      	cmp	r0, #0
    2330:	d0f9      	beq.n	2326 <ebpf_vm_exec+0x1c2>
    2332:	2001      	movs	r0, #1
    2334:	e198      	b.n	2668 <ebpf_vm_exec+0x504>
    2336:	e17a      	b.n	262e <ebpf_vm_exec+0x4ca>
    2338:	e3fd      	b.n	2b36 <ebpf_vm_exec+0x9d2>
    233a:	e2fa      	b.n	2932 <ebpf_vm_exec+0x7ce>
    233c:	e187      	b.n	264e <ebpf_vm_exec+0x4ea>
    233e:	385f      	subs	r0, #95	; 0x5f
    2340:	280d      	cmp	r0, #13
    2342:	d29c      	bcs.n	227e <ebpf_vm_exec+0x11a>
    2344:	e8df f000 	tbb	[pc, r0]
    2348:	f1f207f3 	.word	0xf1f207f3
    234c:	07eeeff0 	.word	0x07eeeff0
    2350:	ebec07ed 	.word	0xebec07ed
    2354:	00ea      	.short	0x00ea
    2356:	e723      	b.n	21a0 <ebpf_vm_exec+0x3c>
    2358:	28a4      	cmp	r0, #164	; 0xa4
    235a:	d06c      	beq.n	2436 <ebpf_vm_exec+0x2d2>
    235c:	dc77      	bgt.n	244e <ebpf_vm_exec+0x2ea>
    235e:	287c      	cmp	r0, #124	; 0x7c
    2360:	d06b      	beq.n	243a <ebpf_vm_exec+0x2d6>
    2362:	dc14      	bgt.n	238e <ebpf_vm_exec+0x22a>
    2364:	f1a0 006d 	sub.w	r0, r0, #109	; 0x6d
    2368:	280f      	cmp	r0, #15
    236a:	d288      	bcs.n	227e <ebpf_vm_exec+0x11a>
    236c:	e004      	b.n	2378 <ebpf_vm_exec+0x214>
    236e:	e3f2      	b.n	2b56 <ebpf_vm_exec+0x9f2>
    2370:	e3f2      	b.n	2b58 <ebpf_vm_exec+0x9f4>
    2372:	e3f2      	b.n	2b5a <ebpf_vm_exec+0x9f6>
    2374:	e2f0      	b.n	2958 <ebpf_vm_exec+0x7f4>
    2376:	e30c      	b.n	2992 <ebpf_vm_exec+0x82e>
    2378:	e8df f000 	tbb	[pc, r0]
    237c:	08e708e8 	.word	0x08e708e8
    2380:	e3e4e5e6 	.word	0xe3e4e5e6
    2384:	08e108e2 	.word	0x08e108e2
    2388:	00dedfe0 	.word	0x00dedfe0
    238c:	e708      	b.n	21a0 <ebpf_vm_exec+0x3c>
    238e:	2894      	cmp	r0, #148	; 0x94
    2390:	d079      	beq.n	2486 <ebpf_vm_exec+0x322>
    2392:	dc37      	bgt.n	2404 <ebpf_vm_exec+0x2a0>
    2394:	2884      	cmp	r0, #132	; 0x84
    2396:	d077      	beq.n	2488 <ebpf_vm_exec+0x324>
    2398:	dc16      	bgt.n	23c8 <ebpf_vm_exec+0x264>
    239a:	287d      	cmp	r0, #125	; 0x7d
    239c:	d075      	beq.n	248a <ebpf_vm_exec+0x326>
    239e:	287f      	cmp	r0, #127	; 0x7f
    23a0:	d186      	bne.n	22b0 <ebpf_vm_exec+0x14c>
    23a2:	f89d 0019 	ldrb.w	r0, [sp, #25]
    23a6:	f000 010f 	and.w	r1, r0, #15
    23aa:	eb05 02c1 	add.w	r2, r5, r1, lsl #3
    23ae:	92cc      	str	r2, [sp, #816]	; 0x330
    23b0:	e9d2 1c00 	ldrd	r1, ip, [r2]
    23b4:	0900      	lsrs	r0, r0, #4
    23b6:	f855 2030 	ldr.w	r2, [r5, r0, lsl #3]
    23ba:	4608      	mov	r0, r1
    23bc:	4661      	mov	r1, ip
    23be:	f7fe f865 	bl	48c <__aeabi_llsr>
    23c2:	9acc      	ldr	r2, [sp, #816]	; 0x330
    23c4:	c203      	stmia	r2!, {r0, r1}
    23c6:	e6eb      	b.n	21a0 <ebpf_vm_exec+0x3c>
    23c8:	2885      	cmp	r0, #133	; 0x85
    23ca:	d076      	beq.n	24ba <ebpf_vm_exec+0x356>
    23cc:	2887      	cmp	r0, #135	; 0x87
    23ce:	d189      	bne.n	22e4 <ebpf_vm_exec+0x180>
    23d0:	f89d 0019 	ldrb.w	r0, [sp, #25]
    23d4:	2100      	movs	r1, #0
    23d6:	f000 000f 	and.w	r0, r0, #15
    23da:	eb05 00c0 	add.w	r0, r5, r0, lsl #3
    23de:	e9d0 2300 	ldrd	r2, r3, [r0]
    23e2:	4252      	negs	r2, r2
    23e4:	e009      	b.n	23fa <ebpf_vm_exec+0x296>
    23e6:	e3fc      	b.n	2be2 <ebpf_vm_exec+0xa7e>
    23e8:	e2e2      	b.n	29b0 <ebpf_vm_exec+0x84c>
    23ea:	e136      	b.n	265a <ebpf_vm_exec+0x4f6>
    23ec:	e2f3      	b.n	29d6 <ebpf_vm_exec+0x872>
    23ee:	e3f9      	b.n	2be4 <ebpf_vm_exec+0xa80>
    23f0:	e0f4      	b.n	25dc <ebpf_vm_exec+0x478>
    23f2:	e3f8      	b.n	2be6 <ebpf_vm_exec+0xa82>
    23f4:	e24f      	b.n	2896 <ebpf_vm_exec+0x732>
    23f6:	e3f7      	b.n	2be8 <ebpf_vm_exec+0xa84>
    23f8:	e135      	b.n	2666 <ebpf_vm_exec+0x502>
    23fa:	eb61 0103 	sbc.w	r1, r1, r3
    23fe:	e9c0 2100 	strd	r2, r1, [r0]
    2402:	e6cd      	b.n	21a0 <ebpf_vm_exec+0x3c>
    2404:	2895      	cmp	r0, #149	; 0x95
    2406:	d076      	beq.n	24f6 <ebpf_vm_exec+0x392>
    2408:	2897      	cmp	r0, #151	; 0x97
    240a:	d075      	beq.n	24f8 <ebpf_vm_exec+0x394>
    240c:	289c      	cmp	r0, #156	; 0x9c
    240e:	d074      	beq.n	24fa <ebpf_vm_exec+0x396>
    2410:	289f      	cmp	r0, #159	; 0x9f
    2412:	d1a0      	bne.n	2356 <ebpf_vm_exec+0x1f2>
    2414:	f89d 0019 	ldrb.w	r0, [sp, #25]
    2418:	0901      	lsrs	r1, r0, #4
    241a:	eb05 01c1 	add.w	r1, r5, r1, lsl #3
    241e:	c90c      	ldmia	r1!, {r2, r3}
    2420:	ea52 0103 	orrs.w	r1, r2, r3
    2424:	d06a      	beq.n	24fc <ebpf_vm_exec+0x398>
    2426:	f000 000f 	and.w	r0, r0, #15
    242a:	e007      	b.n	243c <ebpf_vm_exec+0x2d8>
    242c:	e3fe      	b.n	2c2c <ebpf_vm_exec+0xac8>
    242e:	e0f0      	b.n	2612 <ebpf_vm_exec+0x4ae>
    2430:	e255      	b.n	28de <ebpf_vm_exec+0x77a>
    2432:	e3fc      	b.n	2c2e <ebpf_vm_exec+0xaca>
    2434:	e0e1      	b.n	25fa <ebpf_vm_exec+0x496>
    2436:	e188      	b.n	274a <ebpf_vm_exec+0x5e6>
    2438:	e009      	b.n	244e <ebpf_vm_exec+0x2ea>
    243a:	e140      	b.n	26be <ebpf_vm_exec+0x55a>
    243c:	eb05 01c0 	add.w	r1, r5, r0, lsl #3
    2440:	91ca      	str	r1, [sp, #808]	; 0x328
    2442:	c903      	ldmia	r1, {r0, r1}
    2444:	f7fd ffe2 	bl	40c <__aeabi_uldivmod>
    2448:	99ca      	ldr	r1, [sp, #808]	; 0x328
    244a:	c10c      	stmia	r1!, {r2, r3}
    244c:	e6a8      	b.n	21a0 <ebpf_vm_exec+0x3c>
    244e:	28bf      	cmp	r0, #191	; 0xbf
    2450:	d06e      	beq.n	2530 <ebpf_vm_exec+0x3cc>
    2452:	dc54      	bgt.n	24fe <ebpf_vm_exec+0x39a>
    2454:	28b4      	cmp	r0, #180	; 0xb4
    2456:	d06c      	beq.n	2532 <ebpf_vm_exec+0x3ce>
    2458:	dc30      	bgt.n	24bc <ebpf_vm_exec+0x358>
    245a:	28ac      	cmp	r0, #172	; 0xac
    245c:	d06a      	beq.n	2534 <ebpf_vm_exec+0x3d0>
    245e:	dc15      	bgt.n	248c <ebpf_vm_exec+0x328>
    2460:	28a5      	cmp	r0, #165	; 0xa5
    2462:	d068      	beq.n	2536 <ebpf_vm_exec+0x3d2>
    2464:	28a7      	cmp	r0, #167	; 0xa7
    2466:	d191      	bne.n	238c <ebpf_vm_exec+0x228>
    2468:	f89d 0019 	ldrb.w	r0, [sp, #25]
    246c:	f000 000f 	and.w	r0, r0, #15
    2470:	eb05 01c0 	add.w	r1, r5, r0, lsl #3
    2474:	9807      	ldr	r0, [sp, #28]
    2476:	e9d1 3c00 	ldrd	r3, ip, [r1]
    247a:	4043      	eors	r3, r0
    247c:	ea8c 7ce0 	eor.w	ip, ip, r0, asr #31
    2480:	e9c1 3c00 	strd	r3, ip, [r1]
    2484:	e68c      	b.n	21a0 <ebpf_vm_exec+0x3c>
    2486:	e137      	b.n	26f8 <ebpf_vm_exec+0x594>
    2488:	e127      	b.n	26da <ebpf_vm_exec+0x576>
    248a:	e3fc      	b.n	2c86 <ebpf_vm_exec+0xb22>
    248c:	28ad      	cmp	r0, #173	; 0xad
    248e:	d07b      	beq.n	2588 <ebpf_vm_exec+0x424>
    2490:	28af      	cmp	r0, #175	; 0xaf
    2492:	d198      	bne.n	23c6 <ebpf_vm_exec+0x262>
    2494:	f89d c019 	ldrb.w	ip, [sp, #25]
    2498:	f00c 000f 	and.w	r0, ip, #15
    249c:	ea4f 131c 	mov.w	r3, ip, lsr #4
    24a0:	eb05 00c0 	add.w	r0, r5, r0, lsl #3
    24a4:	eb05 0cc3 	add.w	ip, r5, r3, lsl #3
    24a8:	e9d0 1200 	ldrd	r1, r2, [r0]
    24ac:	e9dc 3c00 	ldrd	r3, ip, [ip]
    24b0:	4059      	eors	r1, r3
    24b2:	ea82 020c 	eor.w	r2, r2, ip
    24b6:	c006      	stmia	r0!, {r1, r2}
    24b8:	e672      	b.n	21a0 <ebpf_vm_exec+0x3c>
    24ba:	e3fd      	b.n	2cb8 <ebpf_vm_exec+0xb54>
    24bc:	28b5      	cmp	r0, #181	; 0xb5
    24be:	d070      	beq.n	25a2 <ebpf_vm_exec+0x43e>
    24c0:	28b7      	cmp	r0, #183	; 0xb7
    24c2:	d06f      	beq.n	25a4 <ebpf_vm_exec+0x440>
    24c4:	28bc      	cmp	r0, #188	; 0xbc
    24c6:	d06e      	beq.n	25a6 <ebpf_vm_exec+0x442>
    24c8:	28bd      	cmp	r0, #189	; 0xbd
    24ca:	d19a      	bne.n	2402 <ebpf_vm_exec+0x29e>
    24cc:	f89d 0019 	ldrb.w	r0, [sp, #25]
    24d0:	0901      	lsrs	r1, r0, #4
    24d2:	f000 000f 	and.w	r0, r0, #15
    24d6:	eb05 01c1 	add.w	r1, r5, r1, lsl #3
    24da:	eb05 00c0 	add.w	r0, r5, r0, lsl #3
    24de:	e9d1 2100 	ldrd	r2, r1, [r1]
    24e2:	e9d0 3000 	ldrd	r3, r0, [r0]
    24e6:	1ad2      	subs	r2, r2, r3
    24e8:	4181      	sbcs	r1, r0
    24ea:	d38a      	bcc.n	2402 <ebpf_vm_exec+0x29e>
    24ec:	f8bd 001a 	ldrh.w	r0, [sp, #26]
    24f0:	4420      	add	r0, r4
    24f2:	b284      	uxth	r4, r0
    24f4:	e654      	b.n	21a0 <ebpf_vm_exec+0x3c>
    24f6:	e3fd      	b.n	2cf4 <ebpf_vm_exec+0xb90>
    24f8:	e2be      	b.n	2a78 <ebpf_vm_exec+0x914>
    24fa:	e10c      	b.n	2716 <ebpf_vm_exec+0x5b2>
    24fc:	e2cc      	b.n	2a98 <ebpf_vm_exec+0x934>
    24fe:	28cf      	cmp	r0, #207	; 0xcf
    2500:	d07a      	beq.n	25f8 <ebpf_vm_exec+0x494>
    2502:	dc24      	bgt.n	254e <ebpf_vm_exec+0x3ea>
    2504:	f1a0 00c4 	sub.w	r0, r0, #196	; 0xc4
    2508:	280a      	cmp	r0, #10
    250a:	d29f      	bcs.n	244c <ebpf_vm_exec+0x2e8>
    250c:	e8df f000 	tbb	[pc, r0]
    2510:	f105f2f3 	.word	0xf105f2f3
    2514:	05050505 	.word	0x05050505
    2518:	eff0      	.short	0xeff0
    251a:	e641      	b.n	21a0 <ebpf_vm_exec+0x3c>
    251c:	e3eb      	b.n	2cf6 <ebpf_vm_exec+0xb92>
    251e:	e3d8      	b.n	2cd2 <ebpf_vm_exec+0xb6e>
    2520:	e343      	b.n	2baa <ebpf_vm_exec+0xa46>
    2522:	e27a      	b.n	2a1a <ebpf_vm_exec+0x8b6>
    2524:	e3e8      	b.n	2cf8 <ebpf_vm_exec+0xb94>
    2526:	e0a4      	b.n	2672 <ebpf_vm_exec+0x50e>
    2528:	e3e7      	b.n	2cfa <ebpf_vm_exec+0xb96>
    252a:	e3b0      	b.n	2c8e <ebpf_vm_exec+0xb2a>
    252c:	e319      	b.n	2b62 <ebpf_vm_exec+0x9fe>
    252e:	e261      	b.n	29f4 <ebpf_vm_exec+0x890>
    2530:	e2bf      	b.n	2ab2 <ebpf_vm_exec+0x94e>
    2532:	e124      	b.n	277e <ebpf_vm_exec+0x61a>
    2534:	e115      	b.n	2762 <ebpf_vm_exec+0x5fe>
    2536:	e3ee      	b.n	2d16 <ebpf_vm_exec+0xbb2>
    2538:	e3ee      	b.n	2d18 <ebpf_vm_exec+0xbb4>
    253a:	e386      	b.n	2c4a <ebpf_vm_exec+0xae6>
    253c:	e2e8      	b.n	2b10 <ebpf_vm_exec+0x9ac>
    253e:	e28d      	b.n	2a5c <ebpf_vm_exec+0x8f8>
    2540:	e3eb      	b.n	2d1a <ebpf_vm_exec+0xbb6>
    2542:	e0b0      	b.n	26a6 <ebpf_vm_exec+0x542>
    2544:	e3ea      	b.n	2d1c <ebpf_vm_exec+0xbb8>
    2546:	e3ea      	b.n	2d1e <ebpf_vm_exec+0xbba>
    2548:	e358      	b.n	2bfc <ebpf_vm_exec+0xa98>
    254a:	e274      	b.n	2a36 <ebpf_vm_exec+0x8d2>
    254c:	e3e8      	b.n	2d20 <ebpf_vm_exec+0xbbc>
    254e:	28d4      	cmp	r0, #212	; 0xd4
    2550:	d07a      	beq.n	2648 <ebpf_vm_exec+0x4e4>
    2552:	28d5      	cmp	r0, #213	; 0xd5
    2554:	d079      	beq.n	264a <ebpf_vm_exec+0x4e6>
    2556:	28dc      	cmp	r0, #220	; 0xdc
    2558:	d078      	beq.n	264c <ebpf_vm_exec+0x4e8>
    255a:	28dd      	cmp	r0, #221	; 0xdd
    255c:	d192      	bne.n	2484 <ebpf_vm_exec+0x320>
    255e:	f89d 0019 	ldrb.w	r0, [sp, #25]
    2562:	0901      	lsrs	r1, r0, #4
    2564:	f000 000f 	and.w	r0, r0, #15
    2568:	eb05 01c1 	add.w	r1, r5, r1, lsl #3
    256c:	eb05 00c0 	add.w	r0, r5, r0, lsl #3
    2570:	e9d1 2100 	ldrd	r2, r1, [r1]
    2574:	e9d0 3000 	ldrd	r3, r0, [r0]
    2578:	1ad2      	subs	r2, r2, r3
    257a:	4181      	sbcs	r1, r0
    257c:	db9c      	blt.n	24b8 <ebpf_vm_exec+0x354>
    257e:	f8bd 001a 	ldrh.w	r0, [sp, #26]
    2582:	4420      	add	r0, r4
    2584:	b284      	uxth	r4, r0
    2586:	e60b      	b.n	21a0 <ebpf_vm_exec+0x3c>
    2588:	e3fe      	b.n	2d88 <ebpf_vm_exec+0xc24>
    258a:	f89d 0019 	ldrb.w	r0, [sp, #25]
    258e:	9a07      	ldr	r2, [sp, #28]
    2590:	f000 000f 	and.w	r0, r0, #15
    2594:	f855 1030 	ldr.w	r1, [r5, r0, lsl #3]
    2598:	eb05 00c0 	add.w	r0, r5, r0, lsl #3
    259c:	4411      	add	r1, r2
    259e:	c042      	stmia	r0!, {r1, r6}
    25a0:	e5fe      	b.n	21a0 <ebpf_vm_exec+0x3c>
    25a2:	e3f2      	b.n	2d8a <ebpf_vm_exec+0xc26>
    25a4:	e27b      	b.n	2a9e <ebpf_vm_exec+0x93a>
    25a6:	e0f3      	b.n	2790 <ebpf_vm_exec+0x62c>
    25a8:	f89d 0019 	ldrb.w	r0, [sp, #25]
    25ac:	f000 010f 	and.w	r1, r0, #15
    25b0:	0900      	lsrs	r0, r0, #4
    25b2:	f855 2031 	ldr.w	r2, [r5, r1, lsl #3]
    25b6:	f855 0030 	ldr.w	r0, [r5, r0, lsl #3]
    25ba:	4402      	add	r2, r0
    25bc:	eb05 00c1 	add.w	r0, r5, r1, lsl #3
    25c0:	c044      	stmia	r0!, {r2, r6}
    25c2:	e5ed      	b.n	21a0 <ebpf_vm_exec+0x3c>
    25c4:	f89d 0019 	ldrb.w	r0, [sp, #25]
    25c8:	9a07      	ldr	r2, [sp, #28]
    25ca:	f000 000f 	and.w	r0, r0, #15
    25ce:	f855 1030 	ldr.w	r1, [r5, r0, lsl #3]
    25d2:	eb05 00c0 	add.w	r0, r5, r0, lsl #3
    25d6:	1a89      	subs	r1, r1, r2
    25d8:	c042      	stmia	r0!, {r1, r6}
    25da:	e5e1      	b.n	21a0 <ebpf_vm_exec+0x3c>
    25dc:	f89d 0019 	ldrb.w	r0, [sp, #25]
    25e0:	f000 010f 	and.w	r1, r0, #15
    25e4:	0900      	lsrs	r0, r0, #4
    25e6:	f855 2031 	ldr.w	r2, [r5, r1, lsl #3]
    25ea:	f855 0030 	ldr.w	r0, [r5, r0, lsl #3]
    25ee:	1a12      	subs	r2, r2, r0
    25f0:	eb05 00c1 	add.w	r0, r5, r1, lsl #3
    25f4:	c044      	stmia	r0!, {r2, r6}
    25f6:	e5d3      	b.n	21a0 <ebpf_vm_exec+0x3c>
    25f8:	e277      	b.n	2aea <ebpf_vm_exec+0x986>
    25fa:	f89d 0019 	ldrb.w	r0, [sp, #25]
    25fe:	9a07      	ldr	r2, [sp, #28]
    2600:	f000 000f 	and.w	r0, r0, #15
    2604:	f855 1030 	ldr.w	r1, [r5, r0, lsl #3]
    2608:	eb05 00c0 	add.w	r0, r5, r0, lsl #3
    260c:	4351      	muls	r1, r2
    260e:	c042      	stmia	r0!, {r1, r6}
    2610:	e5c6      	b.n	21a0 <ebpf_vm_exec+0x3c>
    2612:	f89d 0019 	ldrb.w	r0, [sp, #25]
    2616:	f000 010f 	and.w	r1, r0, #15
    261a:	0900      	lsrs	r0, r0, #4
    261c:	f855 2031 	ldr.w	r2, [r5, r1, lsl #3]
    2620:	f855 0030 	ldr.w	r0, [r5, r0, lsl #3]
    2624:	4342      	muls	r2, r0
    2626:	eb05 00c1 	add.w	r0, r5, r1, lsl #3
    262a:	c044      	stmia	r0!, {r2, r6}
    262c:	e5b8      	b.n	21a0 <ebpf_vm_exec+0x3c>
    262e:	f89d 0019 	ldrb.w	r0, [sp, #25]
    2632:	9a07      	ldr	r2, [sp, #28]
    2634:	f000 000f 	and.w	r0, r0, #15
    2638:	f855 1030 	ldr.w	r1, [r5, r0, lsl #3]
    263c:	eb05 00c0 	add.w	r0, r5, r0, lsl #3
    2640:	fbb1 f1f2 	udiv	r1, r1, r2
    2644:	c042      	stmia	r0!, {r1, r6}
    2646:	e5ab      	b.n	21a0 <ebpf_vm_exec+0x3c>
    2648:	e0c7      	b.n	27da <ebpf_vm_exec+0x676>
    264a:	e3f6      	b.n	2e3a <ebpf_vm_exec+0xcd6>
    264c:	e0c7      	b.n	27de <ebpf_vm_exec+0x67a>
    264e:	4650      	mov	r0, sl
    2650:	4601      	mov	r1, r0
    2652:	f50d 7d57 	add.w	sp, sp, #860	; 0x35c
    2656:	e8bd 8ff0 	ldmia.w	sp!, {r4, r5, r6, r7, r8, r9, sl, fp, pc}
    265a:	2000      	movs	r0, #0
    265c:	eb05 01c1 	add.w	r1, r5, r1, lsl #3
    2660:	17c2      	asrs	r2, r0, #31
    2662:	c105      	stmia	r1!, {r0, r2}
    2664:	e59c      	b.n	21a0 <ebpf_vm_exec+0x3c>
    2666:	2000      	movs	r0, #0
    2668:	eb05 01c1 	add.w	r1, r5, r1, lsl #3
    266c:	17c2      	asrs	r2, r0, #31
    266e:	c105      	stmia	r1!, {r0, r2}
    2670:	e596      	b.n	21a0 <ebpf_vm_exec+0x3c>
    2672:	f89d 0019 	ldrb.w	r0, [sp, #25]
    2676:	9a07      	ldr	r2, [sp, #28]
    2678:	f000 000f 	and.w	r0, r0, #15
    267c:	f855 1030 	ldr.w	r1, [r5, r0, lsl #3]
    2680:	eb05 00c0 	add.w	r0, r5, r0, lsl #3
    2684:	4091      	lsls	r1, r2
    2686:	c042      	stmia	r0!, {r1, r6}
    2688:	e58a      	b.n	21a0 <ebpf_vm_exec+0x3c>
    268a:	f89d 0019 	ldrb.w	r0, [sp, #25]
    268e:	f000 010f 	and.w	r1, r0, #15
    2692:	0900      	lsrs	r0, r0, #4
    2694:	f855 2031 	ldr.w	r2, [r5, r1, lsl #3]
    2698:	f815 0030 	ldrb.w	r0, [r5, r0, lsl #3]
    269c:	4082      	lsls	r2, r0
    269e:	eb05 00c1 	add.w	r0, r5, r1, lsl #3
    26a2:	c044      	stmia	r0!, {r2, r6}
    26a4:	e57c      	b.n	21a0 <ebpf_vm_exec+0x3c>
    26a6:	f89d 0019 	ldrb.w	r0, [sp, #25]
    26aa:	9a07      	ldr	r2, [sp, #28]
    26ac:	f000 000f 	and.w	r0, r0, #15
    26b0:	f855 1030 	ldr.w	r1, [r5, r0, lsl #3]
    26b4:	eb05 00c0 	add.w	r0, r5, r0, lsl #3
    26b8:	40d1      	lsrs	r1, r2
    26ba:	c042      	stmia	r0!, {r1, r6}
    26bc:	e570      	b.n	21a0 <ebpf_vm_exec+0x3c>
    26be:	f89d 0019 	ldrb.w	r0, [sp, #25]
    26c2:	f000 010f 	and.w	r1, r0, #15
    26c6:	0900      	lsrs	r0, r0, #4
    26c8:	f855 2031 	ldr.w	r2, [r5, r1, lsl #3]
    26cc:	f815 0030 	ldrb.w	r0, [r5, r0, lsl #3]
    26d0:	40c2      	lsrs	r2, r0
    26d2:	eb05 00c1 	add.w	r0, r5, r1, lsl #3
    26d6:	c044      	stmia	r0!, {r2, r6}
    26d8:	e562      	b.n	21a0 <ebpf_vm_exec+0x3c>
    26da:	f89d 0019 	ldrb.w	r0, [sp, #25]
    26de:	f000 000f 	and.w	r0, r0, #15
    26e2:	eb05 00c0 	add.w	r0, r5, r0, lsl #3
    26e6:	6801      	ldr	r1, [r0, #0]
    26e8:	4249      	negs	r1, r1
    26ea:	c042      	stmia	r0!, {r1, r6}
    26ec:	e558      	b.n	21a0 <ebpf_vm_exec+0x3c>
    26ee:	e3f1      	b.n	2ed4 <ebpf_vm_exec+0xd70>
    26f0:	e065      	b.n	27be <ebpf_vm_exec+0x65a>
    26f2:	e1ec      	b.n	2ace <ebpf_vm_exec+0x96a>
    26f4:	e3ef      	b.n	2ed6 <ebpf_vm_exec+0xd72>
    26f6:	e056      	b.n	27a6 <ebpf_vm_exec+0x642>
    26f8:	f89d 0019 	ldrb.w	r0, [sp, #25]
    26fc:	9a07      	ldr	r2, [sp, #28]
    26fe:	f000 000f 	and.w	r0, r0, #15
    2702:	f855 1030 	ldr.w	r1, [r5, r0, lsl #3]
    2706:	eb05 00c0 	add.w	r0, r5, r0, lsl #3
    270a:	fbb1 f3f2 	udiv	r3, r1, r2
    270e:	fb02 1113 	mls	r1, r2, r3, r1
    2712:	c042      	stmia	r0!, {r1, r6}
    2714:	e544      	b.n	21a0 <ebpf_vm_exec+0x3c>
    2716:	f89d 1019 	ldrb.w	r1, [sp, #25]
    271a:	0908      	lsrs	r0, r1, #4
    271c:	eb05 02c0 	add.w	r2, r5, r0, lsl #3
    2720:	e9d2 3200 	ldrd	r3, r2, [r2]
    2724:	4313      	orrs	r3, r2
    2726:	d00d      	beq.n	2744 <ebpf_vm_exec+0x5e0>
    2728:	f001 010f 	and.w	r1, r1, #15
    272c:	f855 0030 	ldr.w	r0, [r5, r0, lsl #3]
    2730:	f855 2031 	ldr.w	r2, [r5, r1, lsl #3]
    2734:	fbb2 f3f0 	udiv	r3, r2, r0
    2738:	fb00 2213 	mls	r2, r0, r3, r2
    273c:	eb05 00c1 	add.w	r0, r5, r1, lsl #3
    2740:	c044      	stmia	r0!, {r2, r6}
    2742:	e52d      	b.n	21a0 <ebpf_vm_exec+0x3c>
    2744:	4650      	mov	r0, sl
    2746:	4601      	mov	r1, r0
    2748:	e783      	b.n	2652 <ebpf_vm_exec+0x4ee>
    274a:	f89d 0019 	ldrb.w	r0, [sp, #25]
    274e:	9a07      	ldr	r2, [sp, #28]
    2750:	f000 000f 	and.w	r0, r0, #15
    2754:	f855 1030 	ldr.w	r1, [r5, r0, lsl #3]
    2758:	eb05 00c0 	add.w	r0, r5, r0, lsl #3
    275c:	4051      	eors	r1, r2
    275e:	c042      	stmia	r0!, {r1, r6}
    2760:	e51e      	b.n	21a0 <ebpf_vm_exec+0x3c>
    2762:	f89d 0019 	ldrb.w	r0, [sp, #25]
    2766:	f000 010f 	and.w	r1, r0, #15
    276a:	0900      	lsrs	r0, r0, #4
    276c:	f855 2031 	ldr.w	r2, [r5, r1, lsl #3]
    2770:	f855 0030 	ldr.w	r0, [r5, r0, lsl #3]
    2774:	4042      	eors	r2, r0
    2776:	eb05 00c1 	add.w	r0, r5, r1, lsl #3
    277a:	c044      	stmia	r0!, {r2, r6}
    277c:	e510      	b.n	21a0 <ebpf_vm_exec+0x3c>
    277e:	f89d 0019 	ldrb.w	r0, [sp, #25]
    2782:	9907      	ldr	r1, [sp, #28]
    2784:	f000 000f 	and.w	r0, r0, #15
    2788:	eb05 00c0 	add.w	r0, r5, r0, lsl #3
    278c:	c042      	stmia	r0!, {r1, r6}
    278e:	e507      	b.n	21a0 <ebpf_vm_exec+0x3c>
    2790:	f89d 0019 	ldrb.w	r0, [sp, #25]
    2794:	0901      	lsrs	r1, r0, #4
    2796:	f000 000f 	and.w	r0, r0, #15
    279a:	f855 1031 	ldr.w	r1, [r5, r1, lsl #3]
    279e:	eb05 00c0 	add.w	r0, r5, r0, lsl #3
    27a2:	c042      	stmia	r0!, {r1, r6}
    27a4:	e4fc      	b.n	21a0 <ebpf_vm_exec+0x3c>
    27a6:	f89d 0019 	ldrb.w	r0, [sp, #25]
    27aa:	9a07      	ldr	r2, [sp, #28]
    27ac:	f000 000f 	and.w	r0, r0, #15
    27b0:	f855 1030 	ldr.w	r1, [r5, r0, lsl #3]
    27b4:	eb05 00c0 	add.w	r0, r5, r0, lsl #3
    27b8:	4111      	asrs	r1, r2
    27ba:	c042      	stmia	r0!, {r1, r6}
    27bc:	e4f0      	b.n	21a0 <ebpf_vm_exec+0x3c>
    27be:	f89d 1019 	ldrb.w	r1, [sp, #25]
    27c2:	f001 000f 	and.w	r0, r1, #15
    27c6:	0909      	lsrs	r1, r1, #4
    27c8:	f855 2030 	ldr.w	r2, [r5, r0, lsl #3]
    27cc:	f815 1031 	ldrb.w	r1, [r5, r1, lsl #3]
    27d0:	eb05 00c0 	add.w	r0, r5, r0, lsl #3
    27d4:	410a      	asrs	r2, r1
    27d6:	c044      	stmia	r0!, {r2, r6}
    27d8:	e4e2      	b.n	21a0 <ebpf_vm_exec+0x3c>
    27da:	9807      	ldr	r0, [sp, #28]
    27dc:	e4e0      	b.n	21a0 <ebpf_vm_exec+0x3c>
    27de:	9807      	ldr	r0, [sp, #28]
    27e0:	2810      	cmp	r0, #16
    27e2:	d024      	beq.n	282e <ebpf_vm_exec+0x6ca>
    27e4:	2820      	cmp	r0, #32
    27e6:	d031      	beq.n	284c <ebpf_vm_exec+0x6e8>
    27e8:	2840      	cmp	r0, #64	; 0x40
    27ea:	d193      	bne.n	2714 <ebpf_vm_exec+0x5b0>
    27ec:	f89d 0019 	ldrb.w	r0, [sp, #25]
    27f0:	f000 000f 	and.w	r0, r0, #15
    27f4:	eb05 02c0 	add.w	r2, r5, r0, lsl #3
    27f8:	e9d2 0100 	ldrd	r0, r1, [r2]
    27fc:	0603      	lsls	r3, r0, #24
    27fe:	f400 4c7f 	and.w	ip, r0, #65280	; 0xff00
    2802:	ea43 230c 	orr.w	r3, r3, ip, lsl #8
    2806:	f400 0c7f 	and.w	ip, r0, #16711680	; 0xff0000
    280a:	ea43 231c 	orr.w	r3, r3, ip, lsr #8
    280e:	ea43 6010 	orr.w	r0, r3, r0, lsr #24
    2812:	060b      	lsls	r3, r1, #24
    2814:	f401 4c7f 	and.w	ip, r1, #65280	; 0xff00
    2818:	ea43 230c 	orr.w	r3, r3, ip, lsl #8
    281c:	f401 0c7f 	and.w	ip, r1, #16711680	; 0xff0000
    2820:	ea43 231c 	orr.w	r3, r3, ip, lsr #8
    2824:	ea43 6111 	orr.w	r1, r3, r1, lsr #24
    2828:	e9c2 1000 	strd	r1, r0, [r2]
    282c:	e4b8      	b.n	21a0 <ebpf_vm_exec+0x3c>
    282e:	f89d 0019 	ldrb.w	r0, [sp, #25]
    2832:	f000 010f 	and.w	r1, r0, #15
    2836:	f835 0031 	ldrh.w	r0, [r5, r1, lsl #3]
    283a:	b280      	uxth	r0, r0
    283c:	0602      	lsls	r2, r0, #24
    283e:	0c12      	lsrs	r2, r2, #16
    2840:	ea42 2210 	orr.w	r2, r2, r0, lsr #8
    2844:	eb05 00c1 	add.w	r0, r5, r1, lsl #3
    2848:	c044      	stmia	r0!, {r2, r6}
    284a:	e4a9      	b.n	21a0 <ebpf_vm_exec+0x3c>
    284c:	f89d 0019 	ldrb.w	r0, [sp, #25]
    2850:	f000 010f 	and.w	r1, r0, #15
    2854:	f855 0031 	ldr.w	r0, [r5, r1, lsl #3]
    2858:	0602      	lsls	r2, r0, #24
    285a:	f400 437f 	and.w	r3, r0, #65280	; 0xff00
    285e:	ea42 2203 	orr.w	r2, r2, r3, lsl #8
    2862:	f400 037f 	and.w	r3, r0, #16711680	; 0xff0000
    2866:	ea42 2213 	orr.w	r2, r2, r3, lsr #8
    286a:	ea42 6210 	orr.w	r2, r2, r0, lsr #24
    286e:	eb05 00c1 	add.w	r0, r5, r1, lsl #3
    2872:	c044      	stmia	r0!, {r2, r6}
    2874:	e494      	b.n	21a0 <ebpf_vm_exec+0x3c>
    2876:	f89d 0019 	ldrb.w	r0, [sp, #25]
    287a:	f000 000f 	and.w	r0, r0, #15
    287e:	eb05 01c0 	add.w	r1, r5, r0, lsl #3
    2882:	9807      	ldr	r0, [sp, #28]
    2884:	e9d1 c200 	ldrd	ip, r2, [r1]
    2888:	eb1c 0c00 	adds.w	ip, ip, r0
    288c:	eb42 72e0 	adc.w	r2, r2, r0, asr #31
    2890:	e9c1 c200 	strd	ip, r2, [r1]
    2894:	e484      	b.n	21a0 <ebpf_vm_exec+0x3c>
    2896:	f89d 0019 	ldrb.w	r0, [sp, #25]
    289a:	f000 000f 	and.w	r0, r0, #15
    289e:	eb05 01c0 	add.w	r1, r5, r0, lsl #3
    28a2:	9807      	ldr	r0, [sp, #28]
    28a4:	e9d1 c200 	ldrd	ip, r2, [r1]
    28a8:	ebbc 0c00 	subs.w	ip, ip, r0
    28ac:	eb62 72e0 	sbc.w	r2, r2, r0, asr #31
    28b0:	e9c1 c200 	strd	ip, r2, [r1]
    28b4:	e474      	b.n	21a0 <ebpf_vm_exec+0x3c>
    28b6:	f89d 1019 	ldrb.w	r1, [sp, #25]
    28ba:	f001 000f 	and.w	r0, r1, #15
    28be:	0909      	lsrs	r1, r1, #4
    28c0:	eb05 00c0 	add.w	r0, r5, r0, lsl #3
    28c4:	eb05 01c1 	add.w	r1, r5, r1, lsl #3
    28c8:	e9d0 3200 	ldrd	r3, r2, [r0]
    28cc:	e9d1 c100 	ldrd	ip, r1, [r1]
    28d0:	ebb3 030c 	subs.w	r3, r3, ip
    28d4:	eb62 0201 	sbc.w	r2, r2, r1
    28d8:	e9c0 3200 	strd	r3, r2, [r0]
    28dc:	e460      	b.n	21a0 <ebpf_vm_exec+0x3c>
    28de:	f89d 0019 	ldrb.w	r0, [sp, #25]
    28e2:	f000 000f 	and.w	r0, r0, #15
    28e6:	eb05 00c0 	add.w	r0, r5, r0, lsl #3
    28ea:	90d3      	str	r0, [sp, #844]	; 0x34c
    28ec:	c80a      	ldmia	r0!, {r1, r3}
    28ee:	9807      	ldr	r0, [sp, #28]
    28f0:	fba1 ce00 	umull	ip, lr, r1, r0
    28f4:	17c2      	asrs	r2, r0, #31
    28f6:	fb03 e000 	mla	r0, r3, r0, lr
    28fa:	fb01 0102 	mla	r1, r1, r2, r0
    28fe:	98d3      	ldr	r0, [sp, #844]	; 0x34c
    2900:	e9c0 c100 	strd	ip, r1, [r0]
    2904:	e44c      	b.n	21a0 <ebpf_vm_exec+0x3c>
    2906:	f89d 1019 	ldrb.w	r1, [sp, #25]
    290a:	f001 000f 	and.w	r0, r1, #15
    290e:	eb05 00c0 	add.w	r0, r5, r0, lsl #3
    2912:	90d2      	str	r0, [sp, #840]	; 0x348
    2914:	c80c      	ldmia	r0!, {r2, r3}
    2916:	0908      	lsrs	r0, r1, #4
    2918:	eb05 01c0 	add.w	r1, r5, r0, lsl #3
    291c:	e9d1 0c00 	ldrd	r0, ip, [r1]
    2920:	fba2 1e00 	umull	r1, lr, r2, r0
    2924:	fb03 e000 	mla	r0, r3, r0, lr
    2928:	fb02 020c 	mla	r2, r2, ip, r0
    292c:	98d2      	ldr	r0, [sp, #840]	; 0x348
    292e:	c006      	stmia	r0!, {r1, r2}
    2930:	e436      	b.n	21a0 <ebpf_vm_exec+0x3c>
    2932:	f89d 0019 	ldrb.w	r0, [sp, #25]
    2936:	9a07      	ldr	r2, [sp, #28]
    2938:	f000 000f 	and.w	r0, r0, #15
    293c:	eb05 0cc0 	add.w	ip, r5, r0, lsl #3
    2940:	f8cd c344 	str.w	ip, [sp, #836]	; 0x344
    2944:	e9dc 0100 	ldrd	r0, r1, [ip]
    2948:	17d3      	asrs	r3, r2, #31
    294a:	f7fd fd5f 	bl	40c <__aeabi_uldivmod>
    294e:	f8dd c344 	ldr.w	ip, [sp, #836]	; 0x344
    2952:	e9cc 0100 	strd	r0, r1, [ip]
    2956:	e423      	b.n	21a0 <ebpf_vm_exec+0x3c>
    2958:	f89d 0019 	ldrb.w	r0, [sp, #25]
    295c:	0901      	lsrs	r1, r0, #4
    295e:	eb05 01c1 	add.w	r1, r5, r1, lsl #3
    2962:	e9d1 2100 	ldrd	r2, r1, [r1]
    2966:	430a      	orrs	r2, r1
    2968:	d010      	beq.n	298c <ebpf_vm_exec+0x828>
    296a:	f000 000f 	and.w	r0, r0, #15
    296e:	9a07      	ldr	r2, [sp, #28]
    2970:	eb05 0cc0 	add.w	ip, r5, r0, lsl #3
    2974:	f8cd c340 	str.w	ip, [sp, #832]	; 0x340
    2978:	e9dc 0100 	ldrd	r0, r1, [ip]
    297c:	17d3      	asrs	r3, r2, #31
    297e:	f7fd fd45 	bl	40c <__aeabi_uldivmod>
    2982:	f8dd c340 	ldr.w	ip, [sp, #832]	; 0x340
    2986:	e9cc 0100 	strd	r0, r1, [ip]
    298a:	e409      	b.n	21a0 <ebpf_vm_exec+0x3c>
    298c:	4650      	mov	r0, sl
    298e:	4601      	mov	r1, r0
    2990:	e65f      	b.n	2652 <ebpf_vm_exec+0x4ee>
    2992:	f89d 0019 	ldrb.w	r0, [sp, #25]
    2996:	f000 000f 	and.w	r0, r0, #15
    299a:	eb05 01c0 	add.w	r1, r5, r0, lsl #3
    299e:	9807      	ldr	r0, [sp, #28]
    29a0:	e9d1 3c00 	ldrd	r3, ip, [r1]
    29a4:	4303      	orrs	r3, r0
    29a6:	ea4c 7ce0 	orr.w	ip, ip, r0, asr #31
    29aa:	e9c1 3c00 	strd	r3, ip, [r1]
    29ae:	e418      	b.n	21e2 <ebpf_vm_exec+0x7e>
    29b0:	f89d c019 	ldrb.w	ip, [sp, #25]
    29b4:	f00c 000f 	and.w	r0, ip, #15
    29b8:	ea4f 131c 	mov.w	r3, ip, lsr #4
    29bc:	eb05 00c0 	add.w	r0, r5, r0, lsl #3
    29c0:	eb05 0cc3 	add.w	ip, r5, r3, lsl #3
    29c4:	e9d0 1200 	ldrd	r1, r2, [r0]
    29c8:	e9dc 3c00 	ldrd	r3, ip, [ip]
    29cc:	4319      	orrs	r1, r3
    29ce:	ea42 020c 	orr.w	r2, r2, ip
    29d2:	c006      	stmia	r0!, {r1, r2}
    29d4:	e405      	b.n	21e2 <ebpf_vm_exec+0x7e>
    29d6:	f89d 0019 	ldrb.w	r0, [sp, #25]
    29da:	f000 000f 	and.w	r0, r0, #15
    29de:	eb05 01c0 	add.w	r1, r5, r0, lsl #3
    29e2:	9807      	ldr	r0, [sp, #28]
    29e4:	e9d1 3c00 	ldrd	r3, ip, [r1]
    29e8:	4003      	ands	r3, r0
    29ea:	ea0c 7ce0 	and.w	ip, ip, r0, asr #31
    29ee:	e9c1 3c00 	strd	r3, ip, [r1]
    29f2:	e40d      	b.n	2210 <ebpf_vm_exec+0xac>
    29f4:	f89d c019 	ldrb.w	ip, [sp, #25]
    29f8:	f00c 000f 	and.w	r0, ip, #15
    29fc:	ea4f 131c 	mov.w	r3, ip, lsr #4
    2a00:	eb05 00c0 	add.w	r0, r5, r0, lsl #3
    2a04:	eb05 0cc3 	add.w	ip, r5, r3, lsl #3
    2a08:	e9d0 1200 	ldrd	r1, r2, [r0]
    2a0c:	e9dc 3c00 	ldrd	r3, ip, [ip]
    2a10:	4019      	ands	r1, r3
    2a12:	ea02 020c 	and.w	r2, r2, ip
    2a16:	c006      	stmia	r0!, {r1, r2}
    2a18:	e405      	b.n	2226 <ebpf_vm_exec+0xc2>
    2a1a:	f89d 0019 	ldrb.w	r0, [sp, #25]
    2a1e:	f000 000f 	and.w	r0, r0, #15
    2a22:	eb05 02c0 	add.w	r2, r5, r0, lsl #3
    2a26:	92cf      	str	r2, [sp, #828]	; 0x33c
    2a28:	ca03      	ldmia	r2!, {r0, r1}
    2a2a:	9a07      	ldr	r2, [sp, #28]
    2a2c:	f7fd fd1f 	bl	46e <__aeabi_llsl>
    2a30:	9acf      	ldr	r2, [sp, #828]	; 0x33c
    2a32:	c203      	stmia	r2!, {r0, r1}
    2a34:	e406      	b.n	2244 <ebpf_vm_exec+0xe0>
    2a36:	f89d 0019 	ldrb.w	r0, [sp, #25]
    2a3a:	f000 010f 	and.w	r1, r0, #15
    2a3e:	eb05 02c1 	add.w	r2, r5, r1, lsl #3
    2a42:	92ce      	str	r2, [sp, #824]	; 0x338
    2a44:	e9d2 1c00 	ldrd	r1, ip, [r2]
    2a48:	0900      	lsrs	r0, r0, #4
    2a4a:	f855 2030 	ldr.w	r2, [r5, r0, lsl #3]
    2a4e:	4608      	mov	r0, r1
    2a50:	4661      	mov	r1, ip
    2a52:	f7fd fd0c 	bl	46e <__aeabi_llsl>
    2a56:	9ace      	ldr	r2, [sp, #824]	; 0x338
    2a58:	c203      	stmia	r2!, {r0, r1}
    2a5a:	e410      	b.n	227e <ebpf_vm_exec+0x11a>
    2a5c:	f89d 0019 	ldrb.w	r0, [sp, #25]
    2a60:	f000 000f 	and.w	r0, r0, #15
    2a64:	eb05 02c0 	add.w	r2, r5, r0, lsl #3
    2a68:	92cd      	str	r2, [sp, #820]	; 0x334
    2a6a:	ca03      	ldmia	r2!, {r0, r1}
    2a6c:	9a07      	ldr	r2, [sp, #28]
    2a6e:	f7fd fd0d 	bl	48c <__aeabi_llsr>
    2a72:	9acd      	ldr	r2, [sp, #820]	; 0x334
    2a74:	c203      	stmia	r2!, {r0, r1}
    2a76:	e41b      	b.n	22b0 <ebpf_vm_exec+0x14c>
    2a78:	f89d 0019 	ldrb.w	r0, [sp, #25]
    2a7c:	9a07      	ldr	r2, [sp, #28]
    2a7e:	f000 000f 	and.w	r0, r0, #15
    2a82:	eb05 01c0 	add.w	r1, r5, r0, lsl #3
    2a86:	91cb      	str	r1, [sp, #812]	; 0x32c
    2a88:	c903      	ldmia	r1, {r0, r1}
    2a8a:	17d3      	asrs	r3, r2, #31
    2a8c:	f7fd fcbe 	bl	40c <__aeabi_uldivmod>
    2a90:	99cb      	ldr	r1, [sp, #812]	; 0x32c
    2a92:	c10c      	stmia	r1!, {r2, r3}
    2a94:	e40c      	b.n	22b0 <ebpf_vm_exec+0x14c>
    2a96:	e273      	b.n	2f80 <ebpf_vm_exec+0xe1c>
    2a98:	4650      	mov	r0, sl
    2a9a:	4601      	mov	r1, r0
    2a9c:	e5d9      	b.n	2652 <ebpf_vm_exec+0x4ee>
    2a9e:	f89d 1019 	ldrb.w	r1, [sp, #25]
    2aa2:	9807      	ldr	r0, [sp, #28]
    2aa4:	f001 010f 	and.w	r1, r1, #15
    2aa8:	eb05 01c1 	add.w	r1, r5, r1, lsl #3
    2aac:	17c2      	asrs	r2, r0, #31
    2aae:	c105      	stmia	r1!, {r0, r2}
    2ab0:	e418      	b.n	22e4 <ebpf_vm_exec+0x180>
    2ab2:	f89d 0019 	ldrb.w	r0, [sp, #25]
    2ab6:	0901      	lsrs	r1, r0, #4
    2ab8:	eb05 01c1 	add.w	r1, r5, r1, lsl #3
    2abc:	f000 000f 	and.w	r0, r0, #15
    2ac0:	e9d1 2100 	ldrd	r2, r1, [r1]
    2ac4:	eb05 00c0 	add.w	r0, r5, r0, lsl #3
    2ac8:	e9c0 2100 	strd	r2, r1, [r0]
    2acc:	e40a      	b.n	22e4 <ebpf_vm_exec+0x180>
    2ace:	f89d 0019 	ldrb.w	r0, [sp, #25]
    2ad2:	f000 000f 	and.w	r0, r0, #15
    2ad6:	eb05 02c0 	add.w	r2, r5, r0, lsl #3
    2ada:	92c9      	str	r2, [sp, #804]	; 0x324
    2adc:	ca03      	ldmia	r2!, {r0, r1}
    2ade:	9a07      	ldr	r2, [sp, #28]
    2ae0:	f7fd fce4 	bl	4ac <__aeabi_lasr>
    2ae4:	9ac9      	ldr	r2, [sp, #804]	; 0x324
    2ae6:	c203      	stmia	r2!, {r0, r1}
    2ae8:	e435      	b.n	2356 <ebpf_vm_exec+0x1f2>
    2aea:	f89d 0019 	ldrb.w	r0, [sp, #25]
    2aee:	f000 010f 	and.w	r1, r0, #15
    2af2:	eb05 02c1 	add.w	r2, r5, r1, lsl #3
    2af6:	92c8      	str	r2, [sp, #800]	; 0x320
    2af8:	e9d2 1c00 	ldrd	r1, ip, [r2]
    2afc:	0900      	lsrs	r0, r0, #4
    2afe:	f855 2030 	ldr.w	r2, [r5, r0, lsl #3]
    2b02:	4608      	mov	r0, r1
    2b04:	4661      	mov	r1, ip
    2b06:	f7fd fcd1 	bl	4ac <__aeabi_lasr>
    2b0a:	9ac8      	ldr	r2, [sp, #800]	; 0x320
    2b0c:	c203      	stmia	r2!, {r0, r1}
    2b0e:	e422      	b.n	2356 <ebpf_vm_exec+0x1f2>
    2b10:	e88d 0382 	stmia.w	sp, {r1, r7, r8, r9}
    2b14:	f89d 1019 	ldrb.w	r1, [sp, #25]
    2b18:	91c7      	str	r1, [sp, #796]	; 0x31c
    2b1a:	0908      	lsrs	r0, r1, #4
    2b1c:	eb05 01c0 	add.w	r1, r5, r0, lsl #3
    2b20:	91c6      	str	r1, [sp, #792]	; 0x318
    2b22:	680a      	ldr	r2, [r1, #0]
    2b24:	f9bd 101a 	ldrsh.w	r1, [sp, #26]
    2b28:	91c5      	str	r1, [sp, #788]	; 0x314
    2b2a:	1851      	adds	r1, r2, r1
    2b2c:	a3fd      	add	r3, pc, #1012	; (adr r3, 2f24 <ebpf_vm_exec+0xdc0>)
    2b2e:	f04f 0208 	mov.w	r2, #8
    2b32:	98d4      	ldr	r0, [sp, #848]	; 0x350
    2b34:	e000      	b.n	2b38 <ebpf_vm_exec+0x9d4>
    2b36:	e212      	b.n	2f5e <ebpf_vm_exec+0xdfa>
    2b38:	f7ff f932 	bl	1da0 <bounds_check>
    2b3c:	b170      	cbz	r0, 2b5c <ebpf_vm_exec+0x9f8>
    2b3e:	98c6      	ldr	r0, [sp, #792]	; 0x318
    2b40:	9ac5      	ldr	r2, [sp, #788]	; 0x314
    2b42:	99c7      	ldr	r1, [sp, #796]	; 0x31c
    2b44:	6800      	ldr	r0, [r0, #0]
    2b46:	1880      	adds	r0, r0, r2
    2b48:	c80c      	ldmia	r0!, {r2, r3}
    2b4a:	f001 000f 	and.w	r0, r1, #15
    2b4e:	eb05 00c0 	add.w	r0, r5, r0, lsl #3
    2b52:	c00c      	stmia	r0!, {r2, r3}
    2b54:	e41a      	b.n	238c <ebpf_vm_exec+0x228>
    2b56:	e29a      	b.n	308e <ebpf_vm_exec+0xf2a>
    2b58:	e271      	b.n	303e <ebpf_vm_exec+0xeda>
    2b5a:	e25e      	b.n	301a <ebpf_vm_exec+0xeb6>
    2b5c:	4650      	mov	r0, sl
    2b5e:	4601      	mov	r1, r0
    2b60:	e577      	b.n	2652 <ebpf_vm_exec+0x4ee>
    2b62:	e88d 0382 	stmia.w	sp, {r1, r7, r8, r9}
    2b66:	f89d 1019 	ldrb.w	r1, [sp, #25]
    2b6a:	91c4      	str	r1, [sp, #784]	; 0x310
    2b6c:	0908      	lsrs	r0, r1, #4
    2b6e:	eb05 01c0 	add.w	r1, r5, r0, lsl #3
    2b72:	91c3      	str	r1, [sp, #780]	; 0x30c
    2b74:	680a      	ldr	r2, [r1, #0]
    2b76:	f9bd 101a 	ldrsh.w	r1, [sp, #26]
    2b7a:	91c2      	str	r1, [sp, #776]	; 0x308
    2b7c:	1851      	adds	r1, r2, r1
    2b7e:	a3e9      	add	r3, pc, #932	; (adr r3, 2f24 <ebpf_vm_exec+0xdc0>)
    2b80:	f04f 0204 	mov.w	r2, #4
    2b84:	98d4      	ldr	r0, [sp, #848]	; 0x350
    2b86:	f7ff f90b 	bl	1da0 <bounds_check>
    2b8a:	b158      	cbz	r0, 2ba4 <ebpf_vm_exec+0xa40>
    2b8c:	99c3      	ldr	r1, [sp, #780]	; 0x30c
    2b8e:	98c4      	ldr	r0, [sp, #784]	; 0x310
    2b90:	680a      	ldr	r2, [r1, #0]
    2b92:	99c2      	ldr	r1, [sp, #776]	; 0x308
    2b94:	f000 000f 	and.w	r0, r0, #15
    2b98:	1851      	adds	r1, r2, r1
    2b9a:	eb05 00c0 	add.w	r0, r5, r0, lsl #3
    2b9e:	680a      	ldr	r2, [r1, #0]
    2ba0:	c044      	stmia	r0!, {r2, r6}
    2ba2:	e410      	b.n	23c6 <ebpf_vm_exec+0x262>
    2ba4:	4650      	mov	r0, sl
    2ba6:	4601      	mov	r1, r0
    2ba8:	e553      	b.n	2652 <ebpf_vm_exec+0x4ee>
    2baa:	e88d 0382 	stmia.w	sp, {r1, r7, r8, r9}
    2bae:	f89d 1019 	ldrb.w	r1, [sp, #25]
    2bb2:	91c1      	str	r1, [sp, #772]	; 0x304
    2bb4:	0908      	lsrs	r0, r1, #4
    2bb6:	eb05 01c0 	add.w	r1, r5, r0, lsl #3
    2bba:	91c0      	str	r1, [sp, #768]	; 0x300
    2bbc:	680a      	ldr	r2, [r1, #0]
    2bbe:	f9bd 101a 	ldrsh.w	r1, [sp, #26]
    2bc2:	91bf      	str	r1, [sp, #764]	; 0x2fc
    2bc4:	1851      	adds	r1, r2, r1
    2bc6:	a3d7      	add	r3, pc, #860	; (adr r3, 2f24 <ebpf_vm_exec+0xdc0>)
    2bc8:	f04f 0202 	mov.w	r2, #2
    2bcc:	98d4      	ldr	r0, [sp, #848]	; 0x350
    2bce:	f7ff f8e7 	bl	1da0 <bounds_check>
    2bd2:	b180      	cbz	r0, 2bf6 <ebpf_vm_exec+0xa92>
    2bd4:	99c0      	ldr	r1, [sp, #768]	; 0x300
    2bd6:	98c1      	ldr	r0, [sp, #772]	; 0x304
    2bd8:	680a      	ldr	r2, [r1, #0]
    2bda:	99bf      	ldr	r1, [sp, #764]	; 0x2fc
    2bdc:	1851      	adds	r1, r2, r1
    2bde:	880a      	ldrh	r2, [r1, #0]
    2be0:	e003      	b.n	2bea <ebpf_vm_exec+0xa86>
    2be2:	e242      	b.n	306a <ebpf_vm_exec+0xf06>
    2be4:	e160      	b.n	2ea8 <ebpf_vm_exec+0xd44>
    2be6:	e14f      	b.n	2e88 <ebpf_vm_exec+0xd24>
    2be8:	e176      	b.n	2ed8 <ebpf_vm_exec+0xd74>
    2bea:	f000 000f 	and.w	r0, r0, #15
    2bee:	eb05 00c0 	add.w	r0, r5, r0, lsl #3
    2bf2:	c044      	stmia	r0!, {r2, r6}
    2bf4:	e405      	b.n	2402 <ebpf_vm_exec+0x29e>
    2bf6:	4650      	mov	r0, sl
    2bf8:	4601      	mov	r1, r0
    2bfa:	e52a      	b.n	2652 <ebpf_vm_exec+0x4ee>
    2bfc:	e88d 0382 	stmia.w	sp, {r1, r7, r8, r9}
    2c00:	f89d 1019 	ldrb.w	r1, [sp, #25]
    2c04:	91be      	str	r1, [sp, #760]	; 0x2f8
    2c06:	0908      	lsrs	r0, r1, #4
    2c08:	eb05 01c0 	add.w	r1, r5, r0, lsl #3
    2c0c:	91bd      	str	r1, [sp, #756]	; 0x2f4
    2c0e:	680a      	ldr	r2, [r1, #0]
    2c10:	f9bd 101a 	ldrsh.w	r1, [sp, #26]
    2c14:	91bc      	str	r1, [sp, #752]	; 0x2f0
    2c16:	1851      	adds	r1, r2, r1
    2c18:	a3c2      	add	r3, pc, #776	; (adr r3, 2f24 <ebpf_vm_exec+0xdc0>)
    2c1a:	f04f 0201 	mov.w	r2, #1
    2c1e:	98d4      	ldr	r0, [sp, #848]	; 0x350
    2c20:	f7ff f8be 	bl	1da0 <bounds_check>
    2c24:	b170      	cbz	r0, 2c44 <ebpf_vm_exec+0xae0>
    2c26:	99bd      	ldr	r1, [sp, #756]	; 0x2f4
    2c28:	98be      	ldr	r0, [sp, #760]	; 0x2f8
    2c2a:	e001      	b.n	2c30 <ebpf_vm_exec+0xacc>
    2c2c:	e182      	b.n	2f34 <ebpf_vm_exec+0xdd0>
    2c2e:	e166      	b.n	2efe <ebpf_vm_exec+0xd9a>
    2c30:	680a      	ldr	r2, [r1, #0]
    2c32:	99bc      	ldr	r1, [sp, #752]	; 0x2f0
    2c34:	f000 000f 	and.w	r0, r0, #15
    2c38:	1851      	adds	r1, r2, r1
    2c3a:	eb05 00c0 	add.w	r0, r5, r0, lsl #3
    2c3e:	780a      	ldrb	r2, [r1, #0]
    2c40:	c044      	stmia	r0!, {r2, r6}
    2c42:	e41f      	b.n	2484 <ebpf_vm_exec+0x320>
    2c44:	4650      	mov	r0, sl
    2c46:	4601      	mov	r1, r0
    2c48:	e503      	b.n	2652 <ebpf_vm_exec+0x4ee>
    2c4a:	e88d 0382 	stmia.w	sp, {r1, r7, r8, r9}
    2c4e:	f89d 1019 	ldrb.w	r1, [sp, #25]
    2c52:	91bb      	str	r1, [sp, #748]	; 0x2ec
    2c54:	0908      	lsrs	r0, r1, #4
    2c56:	f9bd 101a 	ldrsh.w	r1, [sp, #26]
    2c5a:	f855 2030 	ldr.w	r2, [r5, r0, lsl #3]
    2c5e:	91ba      	str	r1, [sp, #744]	; 0x2e8
    2c60:	1851      	adds	r1, r2, r1
    2c62:	a3b2      	add	r3, pc, #712	; (adr r3, 2f2c <ebpf_vm_exec+0xdc8>)
    2c64:	f04f 0208 	mov.w	r2, #8
    2c68:	98d4      	ldr	r0, [sp, #848]	; 0x350
    2c6a:	f7ff f899 	bl	1da0 <bounds_check>
    2c6e:	b158      	cbz	r0, 2c88 <ebpf_vm_exec+0xb24>
    2c70:	99bb      	ldr	r1, [sp, #748]	; 0x2ec
    2c72:	9807      	ldr	r0, [sp, #28]
    2c74:	f001 010f 	and.w	r1, r1, #15
    2c78:	17c2      	asrs	r2, r0, #31
    2c7a:	f855 3031 	ldr.w	r3, [r5, r1, lsl #3]
    2c7e:	99ba      	ldr	r1, [sp, #744]	; 0x2e8
    2c80:	1859      	adds	r1, r3, r1
    2c82:	c105      	stmia	r1!, {r0, r2}
    2c84:	e418      	b.n	24b8 <ebpf_vm_exec+0x354>
    2c86:	e254      	b.n	3132 <ebpf_vm_exec+0xfce>
    2c88:	4650      	mov	r0, sl
    2c8a:	4601      	mov	r1, r0
    2c8c:	e4e1      	b.n	2652 <ebpf_vm_exec+0x4ee>
    2c8e:	e88d 0382 	stmia.w	sp, {r1, r7, r8, r9}
    2c92:	f89d 1019 	ldrb.w	r1, [sp, #25]
    2c96:	91b9      	str	r1, [sp, #740]	; 0x2e4
    2c98:	0908      	lsrs	r0, r1, #4
    2c9a:	f9bd 101a 	ldrsh.w	r1, [sp, #26]
    2c9e:	f855 2030 	ldr.w	r2, [r5, r0, lsl #3]
    2ca2:	91b8      	str	r1, [sp, #736]	; 0x2e0
    2ca4:	1851      	adds	r1, r2, r1
    2ca6:	a3a1      	add	r3, pc, #644	; (adr r3, 2f2c <ebpf_vm_exec+0xdc8>)
    2ca8:	f04f 0204 	mov.w	r2, #4
    2cac:	98d4      	ldr	r0, [sp, #848]	; 0x350
    2cae:	f7ff f877 	bl	1da0 <bounds_check>
    2cb2:	b158      	cbz	r0, 2ccc <ebpf_vm_exec+0xb68>
    2cb4:	98b9      	ldr	r0, [sp, #740]	; 0x2e4
    2cb6:	e000      	b.n	2cba <ebpf_vm_exec+0xb56>
    2cb8:	e289      	b.n	31ce <ebpf_vm_exec+0x106a>
    2cba:	f000 000f 	and.w	r0, r0, #15
    2cbe:	9a07      	ldr	r2, [sp, #28]
    2cc0:	f855 1030 	ldr.w	r1, [r5, r0, lsl #3]
    2cc4:	98b8      	ldr	r0, [sp, #736]	; 0x2e0
    2cc6:	1808      	adds	r0, r1, r0
    2cc8:	6002      	str	r2, [r0, #0]
    2cca:	e413      	b.n	24f4 <ebpf_vm_exec+0x390>
    2ccc:	4650      	mov	r0, sl
    2cce:	4601      	mov	r1, r0
    2cd0:	e4bf      	b.n	2652 <ebpf_vm_exec+0x4ee>
    2cd2:	e88d 0382 	stmia.w	sp, {r1, r7, r8, r9}
    2cd6:	f89d 1019 	ldrb.w	r1, [sp, #25]
    2cda:	91b7      	str	r1, [sp, #732]	; 0x2dc
    2cdc:	0908      	lsrs	r0, r1, #4
    2cde:	f9bd 101a 	ldrsh.w	r1, [sp, #26]
    2ce2:	f855 2030 	ldr.w	r2, [r5, r0, lsl #3]
    2ce6:	91b6      	str	r1, [sp, #728]	; 0x2d8
    2ce8:	1851      	adds	r1, r2, r1
    2cea:	a390      	add	r3, pc, #576	; (adr r3, 2f2c <ebpf_vm_exec+0xdc8>)
    2cec:	f04f 0202 	mov.w	r2, #2
    2cf0:	98d4      	ldr	r0, [sp, #848]	; 0x350
    2cf2:	e003      	b.n	2cfc <ebpf_vm_exec+0xb98>
    2cf4:	e283      	b.n	31fe <ebpf_vm_exec+0x109a>
    2cf6:	e080      	b.n	2dfa <ebpf_vm_exec+0xc96>
    2cf8:	e1df      	b.n	30ba <ebpf_vm_exec+0xf56>
    2cfa:	e05b      	b.n	2db4 <ebpf_vm_exec+0xc50>
    2cfc:	f7ff f850 	bl	1da0 <bounds_check>
    2d00:	b178      	cbz	r0, 2d22 <ebpf_vm_exec+0xbbe>
    2d02:	98b7      	ldr	r0, [sp, #732]	; 0x2dc
    2d04:	9907      	ldr	r1, [sp, #28]
    2d06:	f000 000f 	and.w	r0, r0, #15
    2d0a:	f855 2030 	ldr.w	r2, [r5, r0, lsl #3]
    2d0e:	98b6      	ldr	r0, [sp, #728]	; 0x2d8
    2d10:	1810      	adds	r0, r2, r0
    2d12:	8001      	strh	r1, [r0, #0]
    2d14:	e437      	b.n	2586 <ebpf_vm_exec+0x422>
    2d16:	e148      	b.n	2faa <ebpf_vm_exec+0xe46>
    2d18:	e026      	b.n	2d68 <ebpf_vm_exec+0xc04>
    2d1a:	e1f8      	b.n	310e <ebpf_vm_exec+0xfaa>
    2d1c:	e091      	b.n	2e42 <ebpf_vm_exec+0xcde>
    2d1e:	e003      	b.n	2d28 <ebpf_vm_exec+0xbc4>
    2d20:	e1e0      	b.n	30e4 <ebpf_vm_exec+0xf80>
    2d22:	4650      	mov	r0, sl
    2d24:	4601      	mov	r1, r0
    2d26:	e494      	b.n	2652 <ebpf_vm_exec+0x4ee>
    2d28:	e88d 0382 	stmia.w	sp, {r1, r7, r8, r9}
    2d2c:	f89d 1019 	ldrb.w	r1, [sp, #25]
    2d30:	91b5      	str	r1, [sp, #724]	; 0x2d4
    2d32:	0908      	lsrs	r0, r1, #4
    2d34:	f9bd 101a 	ldrsh.w	r1, [sp, #26]
    2d38:	f855 2030 	ldr.w	r2, [r5, r0, lsl #3]
    2d3c:	91b4      	str	r1, [sp, #720]	; 0x2d0
    2d3e:	1851      	adds	r1, r2, r1
    2d40:	a37a      	add	r3, pc, #488	; (adr r3, 2f2c <ebpf_vm_exec+0xdc8>)
    2d42:	f04f 0201 	mov.w	r2, #1
    2d46:	98d4      	ldr	r0, [sp, #848]	; 0x350
    2d48:	f7ff f82a 	bl	1da0 <bounds_check>
    2d4c:	b148      	cbz	r0, 2d62 <ebpf_vm_exec+0xbfe>
    2d4e:	98b5      	ldr	r0, [sp, #724]	; 0x2d4
    2d50:	9907      	ldr	r1, [sp, #28]
    2d52:	f000 000f 	and.w	r0, r0, #15
    2d56:	f855 2030 	ldr.w	r2, [r5, r0, lsl #3]
    2d5a:	98b4      	ldr	r0, [sp, #720]	; 0x2d0
    2d5c:	1810      	adds	r0, r2, r0
    2d5e:	7001      	strb	r1, [r0, #0]
    2d60:	e411      	b.n	2586 <ebpf_vm_exec+0x422>
    2d62:	4650      	mov	r0, sl
    2d64:	4601      	mov	r1, r0
    2d66:	e474      	b.n	2652 <ebpf_vm_exec+0x4ee>
    2d68:	e88d 0382 	stmia.w	sp, {r1, r7, r8, r9}
    2d6c:	f89d 1019 	ldrb.w	r1, [sp, #25]
    2d70:	91b3      	str	r1, [sp, #716]	; 0x2cc
    2d72:	0908      	lsrs	r0, r1, #4
    2d74:	eb05 01c0 	add.w	r1, r5, r0, lsl #3
    2d78:	91b2      	str	r1, [sp, #712]	; 0x2c8
    2d7a:	680a      	ldr	r2, [r1, #0]
    2d7c:	f9bd 101a 	ldrsh.w	r1, [sp, #26]
    2d80:	91b1      	str	r1, [sp, #708]	; 0x2c4
    2d82:	1851      	adds	r1, r2, r1
    2d84:	a369      	add	r3, pc, #420	; (adr r3, 2f2c <ebpf_vm_exec+0xdc8>)
    2d86:	e001      	b.n	2d8c <ebpf_vm_exec+0xc28>
    2d88:	e120      	b.n	2fcc <ebpf_vm_exec+0xe68>
    2d8a:	e134      	b.n	2ff6 <ebpf_vm_exec+0xe92>
    2d8c:	f04f 0208 	mov.w	r2, #8
    2d90:	98d4      	ldr	r0, [sp, #848]	; 0x350
    2d92:	f7ff f805 	bl	1da0 <bounds_check>
    2d96:	b150      	cbz	r0, 2dae <ebpf_vm_exec+0xc4a>
    2d98:	98b2      	ldr	r0, [sp, #712]	; 0x2c8
    2d9a:	c806      	ldmia	r0!, {r1, r2}
    2d9c:	98b3      	ldr	r0, [sp, #716]	; 0x2cc
    2d9e:	f000 000f 	and.w	r0, r0, #15
    2da2:	f855 3030 	ldr.w	r3, [r5, r0, lsl #3]
    2da6:	98b1      	ldr	r0, [sp, #708]	; 0x2c4
    2da8:	1818      	adds	r0, r3, r0
    2daa:	c006      	stmia	r0!, {r1, r2}
    2dac:	e409      	b.n	25c2 <ebpf_vm_exec+0x45e>
    2dae:	4650      	mov	r0, sl
    2db0:	4601      	mov	r1, r0
    2db2:	e44e      	b.n	2652 <ebpf_vm_exec+0x4ee>
    2db4:	e88d 0382 	stmia.w	sp, {r1, r7, r8, r9}
    2db8:	f89d 1019 	ldrb.w	r1, [sp, #25]
    2dbc:	91b0      	str	r1, [sp, #704]	; 0x2c0
    2dbe:	0909      	lsrs	r1, r1, #4
    2dc0:	91af      	str	r1, [sp, #700]	; 0x2bc
    2dc2:	f855 2031 	ldr.w	r2, [r5, r1, lsl #3]
    2dc6:	f9bd 101a 	ldrsh.w	r1, [sp, #26]
    2dca:	91ae      	str	r1, [sp, #696]	; 0x2b8
    2dcc:	1851      	adds	r1, r2, r1
    2dce:	a357      	add	r3, pc, #348	; (adr r3, 2f2c <ebpf_vm_exec+0xdc8>)
    2dd0:	f04f 0204 	mov.w	r2, #4
    2dd4:	98d4      	ldr	r0, [sp, #848]	; 0x350
    2dd6:	f7fe ffe3 	bl	1da0 <bounds_check>
    2dda:	b158      	cbz	r0, 2df4 <ebpf_vm_exec+0xc90>
    2ddc:	98af      	ldr	r0, [sp, #700]	; 0x2bc
    2dde:	f855 1030 	ldr.w	r1, [r5, r0, lsl #3]
    2de2:	98b0      	ldr	r0, [sp, #704]	; 0x2c0
    2de4:	f000 000f 	and.w	r0, r0, #15
    2de8:	f855 2030 	ldr.w	r2, [r5, r0, lsl #3]
    2dec:	98ae      	ldr	r0, [sp, #696]	; 0x2b8
    2dee:	1810      	adds	r0, r2, r0
    2df0:	6001      	str	r1, [r0, #0]
    2df2:	e40d      	b.n	2610 <ebpf_vm_exec+0x4ac>
    2df4:	4650      	mov	r0, sl
    2df6:	4601      	mov	r1, r0
    2df8:	e42b      	b.n	2652 <ebpf_vm_exec+0x4ee>
    2dfa:	e88d 0382 	stmia.w	sp, {r1, r7, r8, r9}
    2dfe:	f89d 1019 	ldrb.w	r1, [sp, #25]
    2e02:	91ad      	str	r1, [sp, #692]	; 0x2b4
    2e04:	0909      	lsrs	r1, r1, #4
    2e06:	91ac      	str	r1, [sp, #688]	; 0x2b0
    2e08:	f855 2031 	ldr.w	r2, [r5, r1, lsl #3]
    2e0c:	f9bd 101a 	ldrsh.w	r1, [sp, #26]
    2e10:	91ab      	str	r1, [sp, #684]	; 0x2ac
    2e12:	1851      	adds	r1, r2, r1
    2e14:	a345      	add	r3, pc, #276	; (adr r3, 2f2c <ebpf_vm_exec+0xdc8>)
    2e16:	f04f 0202 	mov.w	r2, #2
    2e1a:	98d4      	ldr	r0, [sp, #848]	; 0x350
    2e1c:	f7fe ffc0 	bl	1da0 <bounds_check>
    2e20:	b160      	cbz	r0, 2e3c <ebpf_vm_exec+0xcd8>
    2e22:	98ac      	ldr	r0, [sp, #688]	; 0x2b0
    2e24:	f835 1030 	ldrh.w	r1, [r5, r0, lsl #3]
    2e28:	98ad      	ldr	r0, [sp, #692]	; 0x2b4
    2e2a:	f000 000f 	and.w	r0, r0, #15
    2e2e:	f855 2030 	ldr.w	r2, [r5, r0, lsl #3]
    2e32:	98ab      	ldr	r0, [sp, #684]	; 0x2ac
    2e34:	1810      	adds	r0, r2, r0
    2e36:	8001      	strh	r1, [r0, #0]
    2e38:	e405      	b.n	2646 <ebpf_vm_exec+0x4e2>
    2e3a:	e1b6      	b.n	31aa <ebpf_vm_exec+0x1046>
    2e3c:	4650      	mov	r0, sl
    2e3e:	4601      	mov	r1, r0
    2e40:	e407      	b.n	2652 <ebpf_vm_exec+0x4ee>
    2e42:	e88d 0382 	stmia.w	sp, {r1, r7, r8, r9}
    2e46:	f89d 1019 	ldrb.w	r1, [sp, #25]
    2e4a:	91aa      	str	r1, [sp, #680]	; 0x2a8
    2e4c:	0909      	lsrs	r1, r1, #4
    2e4e:	91a9      	str	r1, [sp, #676]	; 0x2a4
    2e50:	f855 2031 	ldr.w	r2, [r5, r1, lsl #3]
    2e54:	f9bd 101a 	ldrsh.w	r1, [sp, #26]
    2e58:	91a8      	str	r1, [sp, #672]	; 0x2a0
    2e5a:	1851      	adds	r1, r2, r1
    2e5c:	a333      	add	r3, pc, #204	; (adr r3, 2f2c <ebpf_vm_exec+0xdc8>)
    2e5e:	f04f 0201 	mov.w	r2, #1
    2e62:	98d4      	ldr	r0, [sp, #848]	; 0x350
    2e64:	f7fe ff9c 	bl	1da0 <bounds_check>
    2e68:	b158      	cbz	r0, 2e82 <ebpf_vm_exec+0xd1e>
    2e6a:	98a9      	ldr	r0, [sp, #676]	; 0x2a4
    2e6c:	f815 1030 	ldrb.w	r1, [r5, r0, lsl #3]
    2e70:	98aa      	ldr	r0, [sp, #680]	; 0x2a8
    2e72:	f000 000f 	and.w	r0, r0, #15
    2e76:	f855 2030 	ldr.w	r2, [r5, r0, lsl #3]
    2e7a:	98a8      	ldr	r0, [sp, #672]	; 0x2a0
    2e7c:	1810      	adds	r0, r2, r0
    2e7e:	7001      	strb	r1, [r0, #0]
    2e80:	e410      	b.n	26a4 <ebpf_vm_exec+0x540>
    2e82:	4650      	mov	r0, sl
    2e84:	4601      	mov	r1, r0
    2e86:	e45f      	b.n	2748 <ebpf_vm_exec+0x5e4>
    2e88:	4620      	mov	r0, r4
    2e8a:	eb0b 00c0 	add.w	r0, fp, r0, lsl #3
    2e8e:	9a07      	ldr	r2, [sp, #28]
    2e90:	6841      	ldr	r1, [r0, #4]
    2e92:	f89d 0019 	ldrb.w	r0, [sp, #25]
    2e96:	1c64      	adds	r4, r4, #1
    2e98:	f000 000f 	and.w	r0, r0, #15
    2e9c:	eb05 00c0 	add.w	r0, r5, r0, lsl #3
    2ea0:	b2a4      	uxth	r4, r4
    2ea2:	e9c0 2100 	strd	r2, r1, [r0]
    2ea6:	e409      	b.n	26bc <ebpf_vm_exec+0x558>
    2ea8:	f89d 0019 	ldrb.w	r0, [sp, #25]
    2eac:	f000 010f 	and.w	r1, r0, #15
    2eb0:	0900      	lsrs	r0, r0, #4
    2eb2:	eb05 01c1 	add.w	r1, r5, r1, lsl #3
    2eb6:	eb05 00c0 	add.w	r0, r5, r0, lsl #3
    2eba:	e9d1 2100 	ldrd	r2, r1, [r1]
    2ebe:	e9d0 3000 	ldrd	r3, r0, [r0]
    2ec2:	405a      	eors	r2, r3
    2ec4:	4041      	eors	r1, r0
    2ec6:	430a      	orrs	r2, r1
    2ec8:	d193      	bne.n	2df2 <ebpf_vm_exec+0xc8e>
    2eca:	f8bd 001a 	ldrh.w	r0, [sp, #26]
    2ece:	4420      	add	r0, r4
    2ed0:	b284      	uxth	r4, r0
    2ed2:	e40b      	b.n	26ec <ebpf_vm_exec+0x588>
    2ed4:	e154      	b.n	3180 <ebpf_vm_exec+0x101c>
    2ed6:	e141      	b.n	315c <ebpf_vm_exec+0xff8>
    2ed8:	f89d 0019 	ldrb.w	r0, [sp, #25]
    2edc:	f000 000f 	and.w	r0, r0, #15
    2ee0:	eb05 00c0 	add.w	r0, r5, r0, lsl #3
    2ee4:	e9d0 2100 	ldrd	r2, r1, [r0]
    2ee8:	9807      	ldr	r0, [sp, #28]
    2eea:	4042      	eors	r2, r0
    2eec:	ea81 71e0 	eor.w	r1, r1, r0, asr #31
    2ef0:	430a      	orrs	r2, r1
    2ef2:	d1a1      	bne.n	2e38 <ebpf_vm_exec+0xcd4>
    2ef4:	f8bd 001a 	ldrh.w	r0, [sp, #26]
    2ef8:	4420      	add	r0, r4
    2efa:	b284      	uxth	r4, r0
    2efc:	e40a      	b.n	2714 <ebpf_vm_exec+0x5b0>
    2efe:	f89d 0019 	ldrb.w	r0, [sp, #25]
    2f02:	9907      	ldr	r1, [sp, #28]
    2f04:	f000 000f 	and.w	r0, r0, #15
    2f08:	eb05 00c0 	add.w	r0, r5, r0, lsl #3
    2f0c:	e9d0 2000 	ldrd	r2, r0, [r0]
    2f10:	1a89      	subs	r1, r1, r2
    2f12:	eb76 0000 	sbcs.w	r0, r6, r0
    2f16:	d28f      	bcs.n	2e38 <ebpf_vm_exec+0xcd4>
    2f18:	f8bd 001a 	ldrh.w	r0, [sp, #26]
    2f1c:	4420      	add	r0, r4
    2f1e:	b284      	uxth	r4, r0
    2f20:	e40f      	b.n	2742 <ebpf_vm_exec+0x5de>
    2f22:	0000      	.short	0x0000
    2f24:	64616f6c 	.word	0x64616f6c
    2f28:	00000000 	.word	0x00000000
    2f2c:	726f7473 	.word	0x726f7473
    2f30:	00000065 	.word	0x00000065
    2f34:	f89d 0019 	ldrb.w	r0, [sp, #25]
    2f38:	0901      	lsrs	r1, r0, #4
    2f3a:	f000 000f 	and.w	r0, r0, #15
    2f3e:	eb05 01c1 	add.w	r1, r5, r1, lsl #3
    2f42:	eb05 00c0 	add.w	r0, r5, r0, lsl #3
    2f46:	e9d1 2100 	ldrd	r2, r1, [r1]
    2f4a:	e9d0 3000 	ldrd	r3, r0, [r0]
    2f4e:	1ad2      	subs	r2, r2, r3
    2f50:	4181      	sbcs	r1, r0
    2f52:	d295      	bcs.n	2e80 <ebpf_vm_exec+0xd1c>
    2f54:	f8bd 001a 	ldrh.w	r0, [sp, #26]
    2f58:	4420      	add	r0, r4
    2f5a:	b284      	uxth	r4, r0
    2f5c:	e40e      	b.n	277c <ebpf_vm_exec+0x618>
    2f5e:	f89d 0019 	ldrb.w	r0, [sp, #25]
    2f62:	9a07      	ldr	r2, [sp, #28]
    2f64:	f000 000f 	and.w	r0, r0, #15
    2f68:	eb05 00c0 	add.w	r0, r5, r0, lsl #3
    2f6c:	e9d0 1000 	ldrd	r1, r0, [r0]
    2f70:	1a89      	subs	r1, r1, r2
    2f72:	41b0      	sbcs	r0, r6
    2f74:	d384      	bcc.n	2e80 <ebpf_vm_exec+0xd1c>
    2f76:	f8bd 001a 	ldrh.w	r0, [sp, #26]
    2f7a:	4420      	add	r0, r4
    2f7c:	b284      	uxth	r4, r0
    2f7e:	e406      	b.n	278e <ebpf_vm_exec+0x62a>
    2f80:	f89d 0019 	ldrb.w	r0, [sp, #25]
    2f84:	f000 010f 	and.w	r1, r0, #15
    2f88:	0900      	lsrs	r0, r0, #4
    2f8a:	eb05 01c1 	add.w	r1, r5, r1, lsl #3
    2f8e:	eb05 00c0 	add.w	r0, r5, r0, lsl #3
    2f92:	e9d1 2100 	ldrd	r2, r1, [r1]
    2f96:	e9d0 3000 	ldrd	r3, r0, [r0]
    2f9a:	1ad2      	subs	r2, r2, r3
    2f9c:	4181      	sbcs	r1, r0
    2f9e:	d398      	bcc.n	2ed2 <ebpf_vm_exec+0xd6e>
    2fa0:	f8bd 001a 	ldrh.w	r0, [sp, #26]
    2fa4:	4420      	add	r0, r4
    2fa6:	b284      	uxth	r4, r0
    2fa8:	e408      	b.n	27bc <ebpf_vm_exec+0x658>
    2faa:	f89d 0019 	ldrb.w	r0, [sp, #25]
    2fae:	f000 000f 	and.w	r0, r0, #15
    2fb2:	eb05 00c0 	add.w	r0, r5, r0, lsl #3
    2fb6:	e9d0 2100 	ldrd	r2, r1, [r0]
    2fba:	9807      	ldr	r0, [sp, #28]
    2fbc:	1a10      	subs	r0, r2, r0
    2fbe:	41b1      	sbcs	r1, r6
    2fc0:	d287      	bcs.n	2ed2 <ebpf_vm_exec+0xd6e>
    2fc2:	f8bd 001a 	ldrh.w	r0, [sp, #26]
    2fc6:	4420      	add	r0, r4
    2fc8:	b284      	uxth	r4, r0
    2fca:	e405      	b.n	27d8 <ebpf_vm_exec+0x674>
    2fcc:	f89d 0019 	ldrb.w	r0, [sp, #25]
    2fd0:	f000 010f 	and.w	r1, r0, #15
    2fd4:	0900      	lsrs	r0, r0, #4
    2fd6:	eb05 01c1 	add.w	r1, r5, r1, lsl #3
    2fda:	eb05 00c0 	add.w	r0, r5, r0, lsl #3
    2fde:	e9d1 2100 	ldrd	r2, r1, [r1]
    2fe2:	e9d0 3000 	ldrd	r3, r0, [r0]
    2fe6:	1ad2      	subs	r2, r2, r3
    2fe8:	4181      	sbcs	r1, r0
    2fea:	d287      	bcs.n	2efc <ebpf_vm_exec+0xd98>
    2fec:	f8bd 001a 	ldrh.w	r0, [sp, #26]
    2ff0:	4420      	add	r0, r4
    2ff2:	b284      	uxth	r4, r0
    2ff4:	e41a      	b.n	282c <ebpf_vm_exec+0x6c8>
    2ff6:	f89d 0019 	ldrb.w	r0, [sp, #25]
    2ffa:	9907      	ldr	r1, [sp, #28]
    2ffc:	f000 000f 	and.w	r0, r0, #15
    3000:	eb05 00c0 	add.w	r0, r5, r0, lsl #3
    3004:	e9d0 2000 	ldrd	r2, r0, [r0]
    3008:	1a89      	subs	r1, r1, r2
    300a:	eb76 0000 	sbcs.w	r0, r6, r0
    300e:	d387      	bcc.n	2f20 <ebpf_vm_exec+0xdbc>
    3010:	f8bd 001a 	ldrh.w	r0, [sp, #26]
    3014:	4420      	add	r0, r4
    3016:	b284      	uxth	r4, r0
    3018:	e408      	b.n	282c <ebpf_vm_exec+0x6c8>
    301a:	f89d 0019 	ldrb.w	r0, [sp, #25]
    301e:	f000 000f 	and.w	r0, r0, #15
    3022:	eb05 00c0 	add.w	r0, r5, r0, lsl #3
    3026:	c80c      	ldmia	r0!, {r2, r3}
    3028:	9807      	ldr	r0, [sp, #28]
    302a:	4002      	ands	r2, r0
    302c:	ea03 73e0 	and.w	r3, r3, r0, asr #31
    3030:	431a      	orrs	r2, r3
    3032:	d093      	beq.n	2f5c <ebpf_vm_exec+0xdf8>
    3034:	f8bd 001a 	ldrh.w	r0, [sp, #26]
    3038:	4420      	add	r0, r4
    303a:	b284      	uxth	r4, r0
    303c:	e405      	b.n	284a <ebpf_vm_exec+0x6e6>
    303e:	f89d 0019 	ldrb.w	r0, [sp, #25]
    3042:	f000 010f 	and.w	r1, r0, #15
    3046:	0900      	lsrs	r0, r0, #4
    3048:	eb05 01c1 	add.w	r1, r5, r1, lsl #3
    304c:	eb05 00c0 	add.w	r0, r5, r0, lsl #3
    3050:	e9d1 2100 	ldrd	r2, r1, [r1]
    3054:	e9d0 3000 	ldrd	r3, r0, [r0]
    3058:	401a      	ands	r2, r3
    305a:	4001      	ands	r1, r0
    305c:	430a      	orrs	r2, r1
    305e:	d08e      	beq.n	2f7e <ebpf_vm_exec+0xe1a>
    3060:	f8bd 001a 	ldrh.w	r0, [sp, #26]
    3064:	4420      	add	r0, r4
    3066:	b284      	uxth	r4, r0
    3068:	e404      	b.n	2874 <ebpf_vm_exec+0x710>
    306a:	f89d 0019 	ldrb.w	r0, [sp, #25]
    306e:	f000 000f 	and.w	r0, r0, #15
    3072:	eb05 00c0 	add.w	r0, r5, r0, lsl #3
    3076:	c806      	ldmia	r0!, {r1, r2}
    3078:	9807      	ldr	r0, [sp, #28]
    307a:	4041      	eors	r1, r0
    307c:	ea82 72e0 	eor.w	r2, r2, r0, asr #31
    3080:	4311      	orrs	r1, r2
    3082:	d091      	beq.n	2fa8 <ebpf_vm_exec+0xe44>
    3084:	f8bd 001a 	ldrh.w	r0, [sp, #26]
    3088:	4420      	add	r0, r4
    308a:	b284      	uxth	r4, r0
    308c:	e412      	b.n	28b4 <ebpf_vm_exec+0x750>
    308e:	f89d 0019 	ldrb.w	r0, [sp, #25]
    3092:	f000 010f 	and.w	r1, r0, #15
    3096:	0900      	lsrs	r0, r0, #4
    3098:	eb05 01c1 	add.w	r1, r5, r1, lsl #3
    309c:	eb05 00c0 	add.w	r0, r5, r0, lsl #3
    30a0:	e9d1 2100 	ldrd	r2, r1, [r1]
    30a4:	e9d0 3000 	ldrd	r3, r0, [r0]
    30a8:	405a      	eors	r2, r3
    30aa:	4041      	eors	r1, r0
    30ac:	430a      	orrs	r2, r1
    30ae:	d08c      	beq.n	2fca <ebpf_vm_exec+0xe66>
    30b0:	f8bd 001a 	ldrh.w	r0, [sp, #26]
    30b4:	4420      	add	r0, r4
    30b6:	b284      	uxth	r4, r0
    30b8:	e410      	b.n	28dc <ebpf_vm_exec+0x778>
    30ba:	f89d 0019 	ldrb.w	r0, [sp, #25]
    30be:	0901      	lsrs	r1, r0, #4
    30c0:	f000 000f 	and.w	r0, r0, #15
    30c4:	eb05 01c1 	add.w	r1, r5, r1, lsl #3
    30c8:	eb05 00c0 	add.w	r0, r5, r0, lsl #3
    30cc:	e9d1 2100 	ldrd	r2, r1, [r1]
    30d0:	e9d0 3000 	ldrd	r3, r0, [r0]
    30d4:	1ad2      	subs	r2, r2, r3
    30d6:	4181      	sbcs	r1, r0
    30d8:	d28c      	bcs.n	2ff4 <ebpf_vm_exec+0xe90>
    30da:	f8bd 001a 	ldrh.w	r0, [sp, #26]
    30de:	4420      	add	r0, r4
    30e0:	b284      	uxth	r4, r0
    30e2:	e40f      	b.n	2904 <ebpf_vm_exec+0x7a0>
    30e4:	f89d 0019 	ldrb.w	r0, [sp, #25]
    30e8:	0901      	lsrs	r1, r0, #4
    30ea:	f000 000f 	and.w	r0, r0, #15
    30ee:	eb05 01c1 	add.w	r1, r5, r1, lsl #3
    30f2:	eb05 00c0 	add.w	r0, r5, r0, lsl #3
    30f6:	e9d1 2100 	ldrd	r2, r1, [r1]
    30fa:	e9d0 3000 	ldrd	r3, r0, [r0]
    30fe:	1ad2      	subs	r2, r2, r3
    3100:	4181      	sbcs	r1, r0
    3102:	da89      	bge.n	3018 <ebpf_vm_exec+0xeb4>
    3104:	f8bd 001a 	ldrh.w	r0, [sp, #26]
    3108:	4420      	add	r0, r4
    310a:	b284      	uxth	r4, r0
    310c:	e410      	b.n	2930 <ebpf_vm_exec+0x7cc>
    310e:	f89d 0019 	ldrb.w	r0, [sp, #25]
    3112:	f000 000f 	and.w	r0, r0, #15
    3116:	eb05 00c0 	add.w	r0, r5, r0, lsl #3
    311a:	e9d0 2100 	ldrd	r2, r1, [r0]
    311e:	9807      	ldr	r0, [sp, #28]
    3120:	17c3      	asrs	r3, r0, #31
    3122:	1a10      	subs	r0, r2, r0
    3124:	4199      	sbcs	r1, r3
    3126:	db89      	blt.n	303c <ebpf_vm_exec+0xed8>
    3128:	f8bd 001a 	ldrh.w	r0, [sp, #26]
    312c:	4420      	add	r0, r4
    312e:	b284      	uxth	r4, r0
    3130:	e411      	b.n	2956 <ebpf_vm_exec+0x7f2>
    3132:	f89d 0019 	ldrb.w	r0, [sp, #25]
    3136:	f000 010f 	and.w	r1, r0, #15
    313a:	0900      	lsrs	r0, r0, #4
    313c:	eb05 01c1 	add.w	r1, r5, r1, lsl #3
    3140:	eb05 00c0 	add.w	r0, r5, r0, lsl #3
    3144:	e9d1 2100 	ldrd	r2, r1, [r1]
    3148:	e9d0 3000 	ldrd	r3, r0, [r0]
    314c:	1ad2      	subs	r2, r2, r3
    314e:	4181      	sbcs	r1, r0
    3150:	db8a      	blt.n	3068 <ebpf_vm_exec+0xf04>
    3152:	f8bd 001a 	ldrh.w	r0, [sp, #26]
    3156:	4420      	add	r0, r4
    3158:	b284      	uxth	r4, r0
    315a:	e416      	b.n	298a <ebpf_vm_exec+0x826>
    315c:	f89d 0019 	ldrb.w	r0, [sp, #25]
    3160:	f000 000f 	and.w	r0, r0, #15
    3164:	eb05 00c0 	add.w	r0, r5, r0, lsl #3
    3168:	e9d0 2100 	ldrd	r2, r1, [r0]
    316c:	9807      	ldr	r0, [sp, #28]
    316e:	17c3      	asrs	r3, r0, #31
    3170:	1a10      	subs	r0, r2, r0
    3172:	4199      	sbcs	r1, r3
    3174:	da8a      	bge.n	308c <ebpf_vm_exec+0xf28>
    3176:	f8bd 001a 	ldrh.w	r0, [sp, #26]
    317a:	4420      	add	r0, r4
    317c:	b284      	uxth	r4, r0
    317e:	e404      	b.n	298a <ebpf_vm_exec+0x826>
    3180:	f89d 0019 	ldrb.w	r0, [sp, #25]
    3184:	f000 010f 	and.w	r1, r0, #15
    3188:	0900      	lsrs	r0, r0, #4
    318a:	eb05 01c1 	add.w	r1, r5, r1, lsl #3
    318e:	eb05 00c0 	add.w	r0, r5, r0, lsl #3
    3192:	e9d1 2100 	ldrd	r2, r1, [r1]
    3196:	e9d0 3000 	ldrd	r3, r0, [r0]
    319a:	1ad2      	subs	r2, r2, r3
    319c:	4181      	sbcs	r1, r0
    319e:	da8b      	bge.n	30b8 <ebpf_vm_exec+0xf54>
    31a0:	f8bd 001a 	ldrh.w	r0, [sp, #26]
    31a4:	4420      	add	r0, r4
    31a6:	b284      	uxth	r4, r0
    31a8:	e414      	b.n	29d4 <ebpf_vm_exec+0x870>
    31aa:	f89d 1019 	ldrb.w	r1, [sp, #25]
    31ae:	9807      	ldr	r0, [sp, #28]
    31b0:	f001 010f 	and.w	r1, r1, #15
    31b4:	eb05 01c1 	add.w	r1, r5, r1, lsl #3
    31b8:	17c2      	asrs	r2, r0, #31
    31ba:	e9d1 3100 	ldrd	r3, r1, [r1]
    31be:	1ac0      	subs	r0, r0, r3
    31c0:	418a      	sbcs	r2, r1
    31c2:	db8e      	blt.n	30e2 <ebpf_vm_exec+0xf7e>
    31c4:	f8bd 001a 	ldrh.w	r0, [sp, #26]
    31c8:	4420      	add	r0, r4
    31ca:	b284      	uxth	r4, r0
    31cc:	e411      	b.n	29f2 <ebpf_vm_exec+0x88e>
    31ce:	9993      	ldr	r1, [sp, #588]	; 0x24c
    31d0:	9892      	ldr	r0, [sp, #584]	; 0x248
    31d2:	e9cd 0104 	strd	r0, r1, [sp, #16]
    31d6:	9991      	ldr	r1, [sp, #580]	; 0x244
    31d8:	9890      	ldr	r0, [sp, #576]	; 0x240
    31da:	e9cd 0102 	strd	r0, r1, [sp, #8]
    31de:	998f      	ldr	r1, [sp, #572]	; 0x23c
    31e0:	988e      	ldr	r0, [sp, #568]	; 0x238
    31e2:	e9cd 0100 	strd	r0, r1, [sp]
    31e6:	98d4      	ldr	r0, [sp, #848]	; 0x350
    31e8:	9907      	ldr	r1, [sp, #28]
    31ea:	6880      	ldr	r0, [r0, #8]
    31ec:	6800      	ldr	r0, [r0, #0]
    31ee:	f850 c021 	ldr.w	ip, [r0, r1, lsl #2]
    31f2:	a88a      	add	r0, sp, #552	; 0x228
    31f4:	c80f      	ldmia	r0, {r0, r1, r2, r3}
    31f6:	47e0      	blx	ip
    31f8:	9189      	str	r1, [sp, #548]	; 0x224
    31fa:	9088      	str	r0, [sp, #544]	; 0x220
    31fc:	e40c      	b.n	2a18 <ebpf_vm_exec+0x8b4>
    31fe:	9989      	ldr	r1, [sp, #548]	; 0x224
    3200:	9888      	ldr	r0, [sp, #544]	; 0x220
    3202:	e44b      	b.n	2a9c <ebpf_vm_exec+0x938>

00003204 <ebpf_vm_set_inst>:
    3204:	6001      	str	r1, [r0, #0]
    3206:	f3c2 01cc 	ubfx	r1, r2, #3, #13
    320a:	8081      	strh	r1, [r0, #4]
    320c:	4770      	bx	lr

0000320e <errata_103>:
    320e:	f04f 5080 	mov.w	r0, #268435456	; 0x10000000
    3212:	f8d0 1130 	ldr.w	r1, [r0, #304]	; 0x130
    3216:	2908      	cmp	r1, #8
    3218:	d102      	bne.n	3220 <errata_103+0x12>
    321a:	f8d0 0134 	ldr.w	r0, [r0, #308]	; 0x134
    321e:	b108      	cbz	r0, 3224 <errata_103+0x16>
    3220:	2000      	movs	r0, #0
    3222:	4770      	bx	lr
    3224:	2001      	movs	r0, #1
    3226:	4770      	bx	lr

00003228 <errata_115>:
    3228:	f04f 5080 	mov.w	r0, #268435456	; 0x10000000
    322c:	f8d0 1130 	ldr.w	r1, [r0, #304]	; 0x130
    3230:	2908      	cmp	r1, #8
    3232:	d102      	bne.n	323a <errata_115+0x12>
    3234:	f8d0 0134 	ldr.w	r0, [r0, #308]	; 0x134
    3238:	b108      	cbz	r0, 323e <errata_115+0x16>
    323a:	2000      	movs	r0, #0
    323c:	4770      	bx	lr
    323e:	2001      	movs	r0, #1
    3240:	4770      	bx	lr

00003242 <errata_120>:
    3242:	f04f 5080 	mov.w	r0, #268435456	; 0x10000000
    3246:	f8d0 1130 	ldr.w	r1, [r0, #304]	; 0x130
    324a:	2908      	cmp	r1, #8
    324c:	d102      	bne.n	3254 <errata_120+0x12>
    324e:	f8d0 0134 	ldr.w	r0, [r0, #308]	; 0x134
    3252:	b108      	cbz	r0, 3258 <errata_120+0x16>
    3254:	2000      	movs	r0, #0
    3256:	4770      	bx	lr
    3258:	2001      	movs	r0, #1
    325a:	4770      	bx	lr

0000325c <errata_136>:
    325c:	f04f 5080 	mov.w	r0, #268435456	; 0x10000000
    3260:	f8d0 1130 	ldr.w	r1, [r0, #304]	; 0x130
    3264:	2908      	cmp	r1, #8
    3266:	d108      	bne.n	327a <errata_136+0x1e>
    3268:	f8d0 0134 	ldr.w	r0, [r0, #308]	; 0x134
    326c:	b138      	cbz	r0, 327e <errata_136+0x22>
    326e:	2801      	cmp	r0, #1
    3270:	d007      	beq.n	3282 <errata_136+0x26>
    3272:	2802      	cmp	r0, #2
    3274:	d007      	beq.n	3286 <errata_136+0x2a>
    3276:	2803      	cmp	r0, #3
    3278:	d007      	beq.n	328a <errata_136+0x2e>
    327a:	2001      	movs	r0, #1
    327c:	4770      	bx	lr
    327e:	2001      	movs	r0, #1
    3280:	4770      	bx	lr
    3282:	2001      	movs	r0, #1
    3284:	4770      	bx	lr
    3286:	2001      	movs	r0, #1
    3288:	4770      	bx	lr
    328a:	2001      	movs	r0, #1
    328c:	4770      	bx	lr

0000328e <errata_36>:
    328e:	f04f 5080 	mov.w	r0, #268435456	; 0x10000000
    3292:	f8d0 1130 	ldr.w	r1, [r0, #304]	; 0x130
    3296:	2908      	cmp	r1, #8
    3298:	d108      	bne.n	32ac <errata_36+0x1e>
    329a:	f8d0 0134 	ldr.w	r0, [r0, #308]	; 0x134
    329e:	b138      	cbz	r0, 32b0 <errata_36+0x22>
    32a0:	2801      	cmp	r0, #1
    32a2:	d007      	beq.n	32b4 <errata_36+0x26>
    32a4:	2802      	cmp	r0, #2
    32a6:	d007      	beq.n	32b8 <errata_36+0x2a>
    32a8:	2803      	cmp	r0, #3
    32aa:	d007      	beq.n	32bc <errata_36+0x2e>
    32ac:	2001      	movs	r0, #1
    32ae:	4770      	bx	lr
    32b0:	2001      	movs	r0, #1
    32b2:	4770      	bx	lr
    32b4:	2001      	movs	r0, #1
    32b6:	4770      	bx	lr
    32b8:	2001      	movs	r0, #1
    32ba:	4770      	bx	lr
    32bc:	2001      	movs	r0, #1
    32be:	4770      	bx	lr

000032c0 <errata_66>:
    32c0:	f04f 5080 	mov.w	r0, #268435456	; 0x10000000
    32c4:	f8d0 1130 	ldr.w	r1, [r0, #304]	; 0x130
    32c8:	2908      	cmp	r1, #8
    32ca:	d108      	bne.n	32de <errata_66+0x1e>
    32cc:	f8d0 0134 	ldr.w	r0, [r0, #308]	; 0x134
    32d0:	b138      	cbz	r0, 32e2 <errata_66+0x22>
    32d2:	2801      	cmp	r0, #1
    32d4:	d007      	beq.n	32e6 <errata_66+0x26>
    32d6:	2802      	cmp	r0, #2
    32d8:	d007      	beq.n	32ea <errata_66+0x2a>
    32da:	2803      	cmp	r0, #3
    32dc:	d007      	beq.n	32ee <errata_66+0x2e>
    32de:	2001      	movs	r0, #1
    32e0:	4770      	bx	lr
    32e2:	2001      	movs	r0, #1
    32e4:	4770      	bx	lr
    32e6:	2001      	movs	r0, #1
    32e8:	4770      	bx	lr
    32ea:	2001      	movs	r0, #1
    32ec:	4770      	bx	lr
    32ee:	2001      	movs	r0, #1
    32f0:	4770      	bx	lr

000032f2 <errata_98>:
    32f2:	f04f 5080 	mov.w	r0, #268435456	; 0x10000000
    32f6:	f8d0 1130 	ldr.w	r1, [r0, #304]	; 0x130
    32fa:	2908      	cmp	r1, #8
    32fc:	d102      	bne.n	3304 <errata_98+0x12>
    32fe:	f8d0 0134 	ldr.w	r0, [r0, #308]	; 0x134
    3302:	b108      	cbz	r0, 3308 <errata_98+0x16>
    3304:	2000      	movs	r0, #0
    3306:	4770      	bx	lr
    3308:	2001      	movs	r0, #1
    330a:	4770      	bx	lr

0000330c <fifo_get>:
    330c:	6882      	ldr	r2, [r0, #8]
    330e:	8883      	ldrh	r3, [r0, #4]
    3310:	401a      	ands	r2, r3
    3312:	6803      	ldr	r3, [r0, #0]
    3314:	5c9a      	ldrb	r2, [r3, r2]
    3316:	700a      	strb	r2, [r1, #0]
    3318:	6881      	ldr	r1, [r0, #8]
    331a:	1c49      	adds	r1, r1, #1
    331c:	6081      	str	r1, [r0, #8]
    331e:	4770      	bx	lr

00003320 <fifo_put>:
    3320:	68c2      	ldr	r2, [r0, #12]
    3322:	8883      	ldrh	r3, [r0, #4]
    3324:	401a      	ands	r2, r3
    3326:	6803      	ldr	r3, [r0, #0]
    3328:	5499      	strb	r1, [r3, r2]
    332a:	68c1      	ldr	r1, [r0, #12]
    332c:	1c49      	adds	r1, r1, #1
    332e:	60c1      	str	r1, [r0, #12]
    3330:	4770      	bx	lr
	...

00003334 <fpb_disable>:
    3334:	4803      	ldr	r0, [pc, #12]	; (3344 <fpb_disable+0x10>)
    3336:	6801      	ldr	r1, [r0, #0]
    3338:	f021 0103 	bic.w	r1, r1, #3
    333c:	1c89      	adds	r1, r1, #2
    333e:	6001      	str	r1, [r0, #0]
    3340:	4770      	bx	lr
    3342:	0000      	.short	0x0000
    3344:	e0002000 	.word	0xe0002000

00003348 <fpb_disable_cur_inst>:
    3348:	e92d 43f8 	stmdb	sp!, {r3, r4, r5, r6, r7, r8, r9, lr}
    334c:	4f17      	ldr	r7, [pc, #92]	; (33ac <fpb_disable_cur_inst+0x64>)
    334e:	eb07 0580 	add.w	r5, r7, r0, lsl #2
    3352:	f8d5 8008 	ldr.w	r8, [r5, #8]
    3356:	4640      	mov	r0, r8
    3358:	f7fe fe08 	bl	1f6c <calc_bpkt_pc>
    335c:	4604      	mov	r4, r0
    335e:	e003      	b.n	3368 <fpb_disable_cur_inst+0x20>
    3360:	4620      	mov	r0, r4
    3362:	f7fe fe03 	bl	1f6c <calc_bpkt_pc>
    3366:	4604      	mov	r4, r0
    3368:	07a0      	lsls	r0, r4, #30
    336a:	d1f9      	bne.n	3360 <fpb_disable_cur_inst+0x18>
    336c:	f044 0001 	orr.w	r0, r4, #1
    3370:	61f8      	str	r0, [r7, #28]
    3372:	68a8      	ldr	r0, [r5, #8]
    3374:	f020 0001 	bic.w	r0, r0, #1
    3378:	60a8      	str	r0, [r5, #8]
    337a:	480d      	ldr	r0, [pc, #52]	; (33b0 <fpb_disable_cur_inst+0x68>)
    337c:	f020 0001 	bic.w	r0, r0, #1
    3380:	1cc0      	adds	r0, r0, #3
    3382:	f020 0103 	bic.w	r1, r0, #3
    3386:	4620      	mov	r0, r4
    3388:	f7fe fdfa 	bl	1f80 <calc_branch_instr>
    338c:	4909      	ldr	r1, [pc, #36]	; (33b4 <fpb_disable_cur_inst+0x6c>)
    338e:	f021 061f 	bic.w	r6, r1, #31
    3392:	f000 fb99 	bl	3ac8 <little_endian_16_bit>
    3396:	6170      	str	r0, [r6, #20]
    3398:	69f8      	ldr	r0, [r7, #28]
    339a:	9000      	str	r0, [sp, #0]
    339c:	68ab      	ldr	r3, [r5, #8]
    339e:	4622      	mov	r2, r4
    33a0:	4641      	mov	r1, r8
    33a2:	4805      	ldr	r0, [pc, #20]	; (33b8 <fpb_disable_cur_inst+0x70>)
    33a4:	f7fe fe6f 	bl	2086 <debug_log>
    33a8:	e8bd 83f8 	ldmia.w	sp!, {r3, r4, r5, r6, r7, r8, r9, pc}
    33ac:	e0002000 	.word	0xe0002000
    33b0:	000003b9 	.word	0x000003b9
    33b4:	20001083 	.word	0x20001083
    33b8:	0000637c 	.word	0x0000637c

000033bc <fpb_enable>:
    33bc:	4802      	ldr	r0, [pc, #8]	; (33c8 <fpb_enable+0xc>)
    33be:	6801      	ldr	r1, [r0, #0]
    33c0:	f041 0103 	orr.w	r1, r1, #3
    33c4:	6001      	str	r1, [r0, #0]
    33c6:	4770      	bx	lr
    33c8:	e0002000 	.word	0xe0002000

000033cc <fpb_enable_callback>:
    33cc:	b570      	push	{r4, r5, r6, lr}
    33ce:	4c0c      	ldr	r4, [pc, #48]	; (3400 <fpb_enable_callback+0x34>)
    33d0:	69e5      	ldr	r5, [r4, #28]
    33d2:	a00c      	add	r0, pc, #48	; (adr r0, 3404 <fpb_enable_callback+0x38>)
    33d4:	4629      	mov	r1, r5
    33d6:	f7fe fe56 	bl	2086 <debug_log>
    33da:	2200      	movs	r2, #0
    33dc:	eb04 0382 	add.w	r3, r4, r2, lsl #2
    33e0:	6898      	ldr	r0, [r3, #8]
    33e2:	b118      	cbz	r0, 33ec <fpb_enable_callback+0x20>
    33e4:	6898      	ldr	r0, [r3, #8]
    33e6:	f040 0001 	orr.w	r0, r0, #1
    33ea:	6098      	str	r0, [r3, #8]
    33ec:	1c52      	adds	r2, r2, #1
    33ee:	2a05      	cmp	r2, #5
    33f0:	dbf4      	blt.n	33dc <fpb_enable_callback+0x10>
    33f2:	69e0      	ldr	r0, [r4, #28]
    33f4:	f020 0001 	bic.w	r0, r0, #1
    33f8:	61e0      	str	r0, [r4, #28]
    33fa:	4628      	mov	r0, r5
    33fc:	bd70      	pop	{r4, r5, r6, pc}
    33fe:	0000      	.short	0x0000
    3400:	e0002000 	.word	0xe0002000
    3404:	5f627066 	.word	0x5f627066
    3408:	62616e65 	.word	0x62616e65
    340c:	635f656c 	.word	0x635f656c
    3410:	626c6c61 	.word	0x626c6c61
    3414:	3a6b6361 	.word	0x3a6b6361
    3418:	25783020 	.word	0x25783020
    341c:	0a783830 	.word	0x0a783830
    3420:	00000000 	.word	0x00000000

00003424 <fpb_remap_init>:
    3424:	4903      	ldr	r1, [pc, #12]	; (3434 <fpb_remap_init+0x10>)
    3426:	6048      	str	r0, [r1, #4]
    3428:	4903      	ldr	r1, [pc, #12]	; (3438 <fpb_remap_init+0x14>)
    342a:	2001      	movs	r0, #1
    342c:	f881 0028 	strb.w	r0, [r1, #40]	; 0x28
    3430:	f7ff bfc4 	b.w	33bc <fpb_enable>
    3434:	e0002000 	.word	0xe0002000
    3438:	20001064 	.word	0x20001064

0000343c <fpb_setup_test>:
    343c:	e92d 41f0 	stmdb	sp!, {r4, r5, r6, r7, r8, lr}
    3440:	4817      	ldr	r0, [pc, #92]	; (34a0 <fpb_setup_test+0x64>)
    3442:	f020 0501 	bic.w	r5, r0, #1
    3446:	4817      	ldr	r0, [pc, #92]	; (34a4 <fpb_setup_test+0x68>)
    3448:	f020 0601 	bic.w	r6, r0, #1
    344c:	4916      	ldr	r1, [pc, #88]	; (34a8 <fpb_setup_test+0x6c>)
    344e:	f045 0001 	orr.w	r0, r5, #1
    3452:	310c      	adds	r1, #12
    3454:	4f14      	ldr	r7, [pc, #80]	; (34a8 <fpb_setup_test+0x6c>)
    3456:	6088      	str	r0, [r1, #8]
    3458:	4631      	mov	r1, r6
    345a:	4628      	mov	r0, r5
    345c:	f7fe fd90 	bl	1f80 <calc_branch_instr>
    3460:	4680      	mov	r8, r0
    3462:	4812      	ldr	r0, [pc, #72]	; (34ac <fpb_setup_test+0x70>)
    3464:	f020 041f 	bic.w	r4, r0, #31
    3468:	4640      	mov	r0, r8
    346a:	f000 fb2d 	bl	3ac8 <little_endian_16_bit>
    346e:	60e0      	str	r0, [r4, #12]
    3470:	4632      	mov	r2, r6
    3472:	4629      	mov	r1, r5
    3474:	a00e      	add	r0, pc, #56	; (adr r0, 34b0 <fpb_setup_test+0x74>)
    3476:	f7fe fe06 	bl	2086 <debug_log>
    347a:	4640      	mov	r0, r8
    347c:	f000 fb24 	bl	3ac8 <little_endian_16_bit>
    3480:	4602      	mov	r2, r0
    3482:	490a      	ldr	r1, [pc, #40]	; (34ac <fpb_setup_test+0x70>)
    3484:	a014      	add	r0, pc, #80	; (adr r0, 34d8 <fpb_setup_test+0x9c>)
    3486:	f7fe fdfe 	bl	2086 <debug_log>
    348a:	68e2      	ldr	r2, [r4, #12]
    348c:	4621      	mov	r1, r4
    348e:	a01c      	add	r0, pc, #112	; (adr r0, 3500 <fpb_setup_test+0xc4>)
    3490:	f7fe fdf9 	bl	2086 <debug_log>
    3494:	607c      	str	r4, [r7, #4]
    3496:	2003      	movs	r0, #3
    3498:	6038      	str	r0, [r7, #0]
    349a:	e8bd 81f0 	ldmia.w	sp!, {r4, r5, r6, r7, r8, pc}
    349e:	0000      	.short	0x0000
    34a0:	00000a49 	.word	0x00000a49
    34a4:	000002f9 	.word	0x000002f9
    34a8:	e0002000 	.word	0xe0002000
    34ac:	20001064 	.word	0x20001064
    34b0:	67677562 	.word	0x67677562
    34b4:	64615f79 	.word	0x64615f79
    34b8:	203a7264 	.word	0x203a7264
    34bc:	30257830 	.word	0x30257830
    34c0:	66207838 	.word	0x66207838
    34c4:	64657869 	.word	0x64657869
    34c8:	6464615f 	.word	0x6464615f
    34cc:	30203a72 	.word	0x30203a72
    34d0:	38302578 	.word	0x38302578
    34d4:	00000a78 	.word	0x00000a78
    34d8:	52444441 	.word	0x52444441
    34dc:	7830203a 	.word	0x7830203a
    34e0:	78383025 	.word	0x78383025
    34e4:	63786520 	.word	0x63786520
    34e8:	65747065 	.word	0x65747065
    34ec:	61762064 	.word	0x61762064
    34f0:	3a65756c 	.word	0x3a65756c
    34f4:	25783020 	.word	0x25783020
    34f8:	0a783830 	.word	0x0a783830
    34fc:	00000000 	.word	0x00000000
    3500:	616d6572 	.word	0x616d6572
    3504:	30203a70 	.word	0x30203a70
    3508:	38302578 	.word	0x38302578
    350c:	6e692078 	.word	0x6e692078
    3510:	61207473 	.word	0x61207473
    3514:	3a726464 	.word	0x3a726464
    3518:	25783020 	.word	0x25783020
    351c:	0a783830 	.word	0x0a783830
    3520:	00000000 	.word	0x00000000

00003524 <get_dynamic_patch_by_bpkt>:
    3524:	490a      	ldr	r1, [pc, #40]	; (3550 <get_dynamic_patch_by_bpkt+0x2c>)
    3526:	68ca      	ldr	r2, [r1, #12]
    3528:	ea30 0202 	bics.w	r2, r0, r2
    352c:	d001      	beq.n	3532 <get_dynamic_patch_by_bpkt+0xe>
    352e:	2000      	movs	r0, #0
    3530:	4770      	bx	lr
    3532:	6989      	ldr	r1, [r1, #24]
    3534:	e008      	b.n	3548 <get_dynamic_patch_by_bpkt+0x24>
    3536:	688a      	ldr	r2, [r1, #8]
    3538:	4282      	cmp	r2, r0
    353a:	d104      	bne.n	3546 <get_dynamic_patch_by_bpkt+0x22>
    353c:	680a      	ldr	r2, [r1, #0]
    353e:	7a12      	ldrb	r2, [r2, #8]
    3540:	b10a      	cbz	r2, 3546 <get_dynamic_patch_by_bpkt+0x22>
    3542:	6808      	ldr	r0, [r1, #0]
    3544:	4770      	bx	lr
    3546:	6849      	ldr	r1, [r1, #4]
    3548:	2900      	cmp	r1, #0
    354a:	d1f4      	bne.n	3536 <get_dynamic_patch_by_bpkt+0x12>
    354c:	2000      	movs	r0, #0
    354e:	4770      	bx	lr
    3550:	20001040 	.word	0x20001040

00003554 <get_hw_bkpt_num>:
    3554:	2006      	movs	r0, #6
    3556:	4770      	bx	lr

00003558 <gpio_output_voltage_setup_3v3>:
    3558:	f04f 2210 	mov.w	r2, #268439552	; 0x10001000
    355c:	f8d2 0304 	ldr.w	r0, [r2, #772]	; 0x304
    3560:	f000 0007 	and.w	r0, r0, #7
    3564:	2805      	cmp	r0, #5
    3566:	d01f      	beq.n	35a8 <gpio_output_voltage_setup_3v3+0x50>
    3568:	4b10      	ldr	r3, [pc, #64]	; (35ac <gpio_output_voltage_setup_3v3+0x54>)
    356a:	2001      	movs	r0, #1
    356c:	6018      	str	r0, [r3, #0]
    356e:	4810      	ldr	r0, [pc, #64]	; (35b0 <gpio_output_voltage_setup_3v3+0x58>)
    3570:	6801      	ldr	r1, [r0, #0]
    3572:	2900      	cmp	r1, #0
    3574:	d0fc      	beq.n	3570 <gpio_output_voltage_setup_3v3+0x18>
    3576:	f8d2 1304 	ldr.w	r1, [r2, #772]	; 0x304
    357a:	f021 0107 	bic.w	r1, r1, #7
    357e:	1d49      	adds	r1, r1, #5
    3580:	f8c2 1304 	str.w	r1, [r2, #772]	; 0x304
    3584:	2100      	movs	r1, #0
    3586:	6019      	str	r1, [r3, #0]
    3588:	6801      	ldr	r1, [r0, #0]
    358a:	2900      	cmp	r1, #0
    358c:	d0fc      	beq.n	3588 <gpio_output_voltage_setup_3v3+0x30>
    358e:	f3bf 8f4f 	dsb	sy
    3592:	4808      	ldr	r0, [pc, #32]	; (35b4 <gpio_output_voltage_setup_3v3+0x5c>)
    3594:	6801      	ldr	r1, [r0, #0]
    3596:	4a08      	ldr	r2, [pc, #32]	; (35b8 <gpio_output_voltage_setup_3v3+0x60>)
    3598:	f401 61e0 	and.w	r1, r1, #1792	; 0x700
    359c:	4311      	orrs	r1, r2
    359e:	6001      	str	r1, [r0, #0]
    35a0:	f3bf 8f4f 	dsb	sy
    35a4:	bf00      	nop
    35a6:	e7fd      	b.n	35a4 <gpio_output_voltage_setup_3v3+0x4c>
    35a8:	4770      	bx	lr
    35aa:	0000      	.short	0x0000
    35ac:	4001e504 	.word	0x4001e504
    35b0:	4001e400 	.word	0x4001e400
    35b4:	e000ed0c 	.word	0xe000ed0c
    35b8:	05fa0004 	.word	0x05fa0004

000035bc <halting_debug_enabled>:
    35bc:	4802      	ldr	r0, [pc, #8]	; (35c8 <halting_debug_enabled+0xc>)
    35be:	6800      	ldr	r0, [r0, #0]
    35c0:	f3c0 0000 	ubfx	r0, r0, #0, #1
    35c4:	4770      	bx	lr
    35c6:	0000      	.short	0x0000
    35c8:	e000edf0 	.word	0xe000edf0

000035cc <handle_eBPF_vm_run_patch>:
    35cc:	f000 b95a 	b.w	3884 <jit_dummy_cve>

000035d0 <handle_patch_func>:
    35d0:	b510      	push	{r4, lr}
    35d2:	4604      	mov	r4, r0
    35d4:	2000      	movs	r0, #0
    35d6:	f001 ffa3 	bl	5520 <set_patch_mode>
    35da:	f002 f9b7 	bl	594c <show_local_patch_desc>
    35de:	4620      	mov	r0, r4
    35e0:	f001 fdd2 	bl	5188 <read_local_patch>
    35e4:	f002 f94a 	bl	587c <show_hw_bkpt>
    35e8:	e8bd 4010 	ldmia.w	sp!, {r4, lr}
    35ec:	f002 b90a 	b.w	5804 <show_all_patches>

000035f0 <handle_trigger_func>:
    35f0:	2201      	movs	r2, #1
    35f2:	2801      	cmp	r0, #1
    35f4:	db03      	blt.n	35fe <handle_trigger_func+0xe>
    35f6:	4601      	mov	r1, r0
    35f8:	a003      	add	r0, pc, #12	; (adr r0, 3608 <handle_trigger_func+0x18>)
    35fa:	f7fe bd44 	b.w	2086 <debug_log>
    35fe:	490d      	ldr	r1, [pc, #52]	; (3634 <handle_trigger_func+0x44>)
    3600:	f851 0020 	ldr.w	r0, [r1, r0, lsl #2]
    3604:	4700      	bx	r0
    3606:	0000      	.short	0x0000
    3608:	4f525245 	.word	0x4f525245
    360c:	74203a52 	.word	0x74203a52
    3610:	67676972 	.word	0x67676972
    3614:	69207265 	.word	0x69207265
    3618:	7865646e 	.word	0x7865646e
    361c:	74756f20 	.word	0x74756f20
    3620:	20666f20 	.word	0x20666f20
    3624:	676e6172 	.word	0x676e6172
    3628:	64252065 	.word	0x64252065
    362c:	203d3e20 	.word	0x203d3e20
    3630:	000a6425 	.word	0x000a6425
    3634:	2000009c 	.word	0x2000009c

00003638 <init_ebpf_vm>:
    3638:	b570      	push	{r4, r5, r6, lr}
    363a:	4604      	mov	r4, r0
    363c:	460d      	mov	r5, r1
    363e:	2010      	movs	r0, #16
    3640:	f7fe fd8e 	bl	2160 <ebpf_malloc>
    3644:	b130      	cbz	r0, 3654 <init_ebpf_vm+0x1c>
    3646:	2200      	movs	r2, #0
    3648:	6082      	str	r2, [r0, #8]
    364a:	6004      	str	r4, [r0, #0]
    364c:	f3c5 01cc 	ubfx	r1, r5, #3, #13
    3650:	8081      	strh	r1, [r0, #4]
    3652:	bd70      	pop	{r4, r5, r6, pc}
    3654:	2000      	movs	r0, #0
    3656:	bd70      	pop	{r4, r5, r6, pc}

00003658 <init_patch_sys>:
    3658:	b510      	push	{r4, lr}
    365a:	4c0c      	ldr	r4, [pc, #48]	; (368c <init_patch_sys+0x34>)
    365c:	7820      	ldrb	r0, [r4, #0]
    365e:	2800      	cmp	r0, #0
    3660:	d113      	bne.n	368a <init_patch_sys+0x32>
    3662:	2101      	movs	r1, #1
    3664:	a00a      	add	r0, pc, #40	; (adr r0, 3690 <init_patch_sys+0x38>)
    3666:	f7fe fd0e 	bl	2086 <debug_log>
    366a:	2008      	movs	r0, #8
    366c:	f7fe fcf9 	bl	2062 <darray_new>
    3670:	490d      	ldr	r1, [pc, #52]	; (36a8 <init_patch_sys+0x50>)
    3672:	6088      	str	r0, [r1, #8]
    3674:	2208      	movs	r2, #8
    3676:	6002      	str	r2, [r0, #0]
    3678:	2000      	movs	r0, #0
    367a:	6148      	str	r0, [r1, #20]
    367c:	6188      	str	r0, [r1, #24]
    367e:	61c8      	str	r0, [r1, #28]
    3680:	6208      	str	r0, [r1, #32]
    3682:	f002 fd0f 	bl	60a4 <update_bits_filter>
    3686:	2001      	movs	r0, #1
    3688:	7020      	strb	r0, [r4, #0]
    368a:	bd10      	pop	{r4, pc}
    368c:	200000dc 	.word	0x200000dc
    3690:	74696e69 	.word	0x74696e69
    3694:	7461705f 	.word	0x7461705f
    3698:	735f6863 	.word	0x735f6863
    369c:	3a317379 	.word	0x3a317379
    36a0:	0a642520 	.word	0x0a642520
    36a4:	00000000 	.word	0x00000000
    36a8:	20001040 	.word	0x20001040

000036ac <int_print>:
    36ac:	e92d 5ffc 	stmdb	sp!, {r2, r3, r4, r5, r6, r7, r8, r9, sl, fp, ip, lr}
    36b0:	4683      	mov	fp, r0
    36b2:	e9dd 470c 	ldrd	r4, r7, [sp, #48]	; 0x30
    36b6:	460e      	mov	r6, r1
    36b8:	4691      	mov	r9, r2
    36ba:	4698      	mov	r8, r3
    36bc:	f1c6 0a00 	rsb	sl, r6, #0
    36c0:	2e00      	cmp	r6, #0
    36c2:	da01      	bge.n	36c8 <int_print+0x1c>
    36c4:	4650      	mov	r0, sl
    36c6:	e000      	b.n	36ca <int_print+0x1e>
    36c8:	4630      	mov	r0, r6
    36ca:	2501      	movs	r5, #1
    36cc:	e002      	b.n	36d4 <int_print+0x28>
    36ce:	fb90 f0f9 	sdiv	r0, r0, r9
    36d2:	1c6d      	adds	r5, r5, #1
    36d4:	4548      	cmp	r0, r9
    36d6:	dafa      	bge.n	36ce <int_print+0x22>
    36d8:	45a8      	cmp	r8, r5
    36da:	d900      	bls.n	36de <int_print+0x32>
    36dc:	4645      	mov	r5, r8
    36de:	b124      	cbz	r4, 36ea <int_print+0x3e>
    36e0:	2e00      	cmp	r6, #0
    36e2:	db01      	blt.n	36e8 <int_print+0x3c>
    36e4:	0778      	lsls	r0, r7, #29
    36e6:	d500      	bpl.n	36ea <int_print+0x3e>
    36e8:	1e64      	subs	r4, r4, #1
    36ea:	07b8      	lsls	r0, r7, #30
    36ec:	d502      	bpl.n	36f4 <int_print+0x48>
    36ee:	f1b8 0f00 	cmp.w	r8, #0
    36f2:	d00b      	beq.n	370c <int_print+0x60>
    36f4:	07f8      	lsls	r0, r7, #31
    36f6:	d109      	bne.n	370c <int_print+0x60>
    36f8:	b92c      	cbnz	r4, 3706 <int_print+0x5a>
    36fa:	e007      	b.n	370c <int_print+0x60>
    36fc:	1e64      	subs	r4, r4, #1
    36fe:	2120      	movs	r1, #32
    3700:	4658      	mov	r0, fp
    3702:	f7fe fbfd 	bl	1f00 <buffer_add>
    3706:	b10c      	cbz	r4, 370c <int_print+0x60>
    3708:	42a5      	cmp	r5, r4
    370a:	d3f7      	bcc.n	36fc <int_print+0x50>
    370c:	2e00      	cmp	r6, #0
    370e:	da05      	bge.n	371c <int_print+0x70>
    3710:	4656      	mov	r6, sl
    3712:	212d      	movs	r1, #45	; 0x2d
    3714:	4658      	mov	r0, fp
    3716:	f7fe fbf3 	bl	1f00 <buffer_add>
    371a:	e005      	b.n	3728 <int_print+0x7c>
    371c:	0778      	lsls	r0, r7, #29
    371e:	d503      	bpl.n	3728 <int_print+0x7c>
    3720:	212b      	movs	r1, #43	; 0x2b
    3722:	4658      	mov	r0, fp
    3724:	f7fe fbec 	bl	1f00 <buffer_add>
    3728:	f007 0003 	and.w	r0, r7, #3
    372c:	2802      	cmp	r0, #2
    372e:	d10c      	bne.n	374a <int_print+0x9e>
    3730:	f1b8 0f00 	cmp.w	r8, #0
    3734:	d109      	bne.n	374a <int_print+0x9e>
    3736:	b92c      	cbnz	r4, 3744 <int_print+0x98>
    3738:	e007      	b.n	374a <int_print+0x9e>
    373a:	1e64      	subs	r4, r4, #1
    373c:	2130      	movs	r1, #48	; 0x30
    373e:	4658      	mov	r0, fp
    3740:	f7fe fbde 	bl	1f00 <buffer_add>
    3744:	b10c      	cbz	r4, 374a <int_print+0x9e>
    3746:	42a5      	cmp	r5, r4
    3748:	d3f7      	bcc.n	373a <int_print+0x8e>
    374a:	e9cd 4700 	strd	r4, r7, [sp]
    374e:	4643      	mov	r3, r8
    3750:	464a      	mov	r2, r9
    3752:	4631      	mov	r1, r6
    3754:	4658      	mov	r0, fp
    3756:	f002 fc4d 	bl	5ff4 <unsigned_print>
    375a:	e8bd 9ffc 	ldmia.w	sp!, {r2, r3, r4, r5, r6, r7, r8, r9, sl, fp, ip, pc}
	...

00003760 <interrupts_enable>:
    3760:	b570      	push	{r4, r5, r6, lr}
    3762:	4604      	mov	r4, r0
    3764:	460d      	mov	r5, r1
    3766:	f44f 718e 	mov.w	r1, #284	; 0x11c
    376a:	6820      	ldr	r0, [r4, #0]
    376c:	f001 f995 	bl	4a9a <nrf_uart_event_clear>
    3770:	f44f 71a2 	mov.w	r1, #324	; 0x144
    3774:	6820      	ldr	r0, [r4, #0]
    3776:	f001 f990 	bl	4a9a <nrf_uart_event_clear>
    377a:	4912      	ldr	r1, [pc, #72]	; (37c4 <interrupts_enable+0x64>)
    377c:	6820      	ldr	r0, [r4, #0]
    377e:	f8c0 1304 	str.w	r1, [r0, #772]	; 0x304
    3782:	6820      	ldr	r0, [r4, #0]
    3784:	f340 3007 	sbfx	r0, r0, #12, #8
    3788:	0769      	lsls	r1, r5, #29
    378a:	0e09      	lsrs	r1, r1, #24
    378c:	2800      	cmp	r0, #0
    378e:	da06      	bge.n	379e <interrupts_enable+0x3e>
    3790:	f000 000f 	and.w	r0, r0, #15
    3794:	f100 20e0 	add.w	r0, r0, #3758153728	; 0xe000e000
    3798:	f880 1d14 	strb.w	r1, [r0, #3348]	; 0xd14
    379c:	e003      	b.n	37a6 <interrupts_enable+0x46>
    379e:	f100 20e0 	add.w	r0, r0, #3758153728	; 0xe000e000
    37a2:	f880 1400 	strb.w	r1, [r0, #1024]	; 0x400
    37a6:	6820      	ldr	r0, [r4, #0]
    37a8:	f340 3007 	sbfx	r0, r0, #12, #8
    37ac:	f000 021f 	and.w	r2, r0, #31
    37b0:	2101      	movs	r1, #1
    37b2:	4091      	lsls	r1, r2
    37b4:	0940      	lsrs	r0, r0, #5
    37b6:	0080      	lsls	r0, r0, #2
    37b8:	f100 20e0 	add.w	r0, r0, #3758153728	; 0xe000e000
    37bc:	f8c0 1100 	str.w	r1, [r0, #256]	; 0x100
    37c0:	bd70      	pop	{r4, r5, r6, pc}
    37c2:	0000      	.short	0x0000
    37c4:	00020080 	.word	0x00020080

000037c8 <interrupts_enable>:
    37c8:	b570      	push	{r4, r5, r6, lr}
    37ca:	4604      	mov	r4, r0
    37cc:	460d      	mov	r5, r1
    37ce:	f44f 7188 	mov.w	r1, #272	; 0x110
    37d2:	6820      	ldr	r0, [r4, #0]
    37d4:	f001 f972 	bl	4abc <nrf_uarte_event_clear>
    37d8:	f44f 7190 	mov.w	r1, #288	; 0x120
    37dc:	6820      	ldr	r0, [r4, #0]
    37de:	f001 f96d 	bl	4abc <nrf_uarte_event_clear>
    37e2:	f44f 7192 	mov.w	r1, #292	; 0x124
    37e6:	6820      	ldr	r0, [r4, #0]
    37e8:	f001 f968 	bl	4abc <nrf_uarte_event_clear>
    37ec:	f44f 71a2 	mov.w	r1, #324	; 0x144
    37f0:	6820      	ldr	r0, [r4, #0]
    37f2:	f001 f963 	bl	4abc <nrf_uarte_event_clear>
    37f6:	f44f 71ac 	mov.w	r1, #344	; 0x158
    37fa:	6820      	ldr	r0, [r4, #0]
    37fc:	f001 f95e 	bl	4abc <nrf_uarte_event_clear>
    3800:	4911      	ldr	r1, [pc, #68]	; (3848 <interrupts_enable+0x80>)
    3802:	6820      	ldr	r0, [r4, #0]
    3804:	f8c0 1304 	str.w	r1, [r0, #772]	; 0x304
    3808:	6820      	ldr	r0, [r4, #0]
    380a:	f340 3007 	sbfx	r0, r0, #12, #8
    380e:	0769      	lsls	r1, r5, #29
    3810:	0e09      	lsrs	r1, r1, #24
    3812:	2800      	cmp	r0, #0
    3814:	da06      	bge.n	3824 <interrupts_enable+0x5c>
    3816:	f000 000f 	and.w	r0, r0, #15
    381a:	f100 20e0 	add.w	r0, r0, #3758153728	; 0xe000e000
    381e:	f880 1d14 	strb.w	r1, [r0, #3348]	; 0xd14
    3822:	e003      	b.n	382c <interrupts_enable+0x64>
    3824:	f100 20e0 	add.w	r0, r0, #3758153728	; 0xe000e000
    3828:	f880 1400 	strb.w	r1, [r0, #1024]	; 0x400
    382c:	6820      	ldr	r0, [r4, #0]
    382e:	f340 3007 	sbfx	r0, r0, #12, #8
    3832:	f000 021f 	and.w	r2, r0, #31
    3836:	2101      	movs	r1, #1
    3838:	4091      	lsls	r1, r2
    383a:	0940      	lsrs	r0, r0, #5
    383c:	0080      	lsls	r0, r0, #2
    383e:	f100 20e0 	add.w	r0, r0, #3758153728	; 0xe000e000
    3842:	f8c0 1100 	str.w	r1, [r0, #256]	; 0x100
    3846:	bd70      	pop	{r4, r5, r6, pc}
    3848:	00420310 	.word	0x00420310

0000384c <invalid_packets_omit>:
    384c:	4602      	mov	r2, r0
    384e:	2000      	movs	r0, #0
    3850:	6812      	ldr	r2, [r2, #0]
    3852:	0753      	lsls	r3, r2, #29
    3854:	d514      	bpl.n	3880 <invalid_packets_omit+0x34>
    3856:	f002 0003 	and.w	r0, r2, #3
    385a:	2801      	cmp	r0, #1
    385c:	d002      	beq.n	3864 <invalid_packets_omit+0x18>
    385e:	2802      	cmp	r0, #2
    3860:	d10d      	bne.n	387e <invalid_packets_omit+0x32>
    3862:	e006      	b.n	3872 <invalid_packets_omit+0x26>
    3864:	f3c2 1083 	ubfx	r0, r2, #6, #4
    3868:	680b      	ldr	r3, [r1, #0]
    386a:	1c80      	adds	r0, r0, #2
    386c:	4418      	add	r0, r3
    386e:	6008      	str	r0, [r1, #0]
    3870:	e005      	b.n	387e <invalid_packets_omit+0x32>
    3872:	2302      	movs	r3, #2
    3874:	6808      	ldr	r0, [r1, #0]
    3876:	eb03 5292 	add.w	r2, r3, r2, lsr #22
    387a:	4410      	add	r0, r2
    387c:	6008      	str	r0, [r1, #0]
    387e:	2001      	movs	r0, #1
    3880:	4770      	bx	lr
	...

00003884 <jit_dummy_cve>:
    3884:	b510      	push	{r4, lr}
    3886:	4808      	ldr	r0, [pc, #32]	; (38a8 <jit_dummy_cve+0x24>)
    3888:	f020 0403 	bic.w	r4, r0, #3
    388c:	4621      	mov	r1, r4
    388e:	a007      	add	r0, pc, #28	; (adr r0, 38ac <jit_dummy_cve+0x28>)
    3890:	f7fe fbf9 	bl	2086 <debug_log>
    3894:	2104      	movs	r1, #4
    3896:	4620      	mov	r0, r4
    3898:	f000 f81c 	bl	38d4 <jit_int_sum>
    389c:	4601      	mov	r1, r0
    389e:	a008      	add	r0, pc, #32	; (adr r0, 38c0 <jit_dummy_cve+0x3c>)
    38a0:	f7fe fbf1 	bl	2086 <debug_log>
    38a4:	bd10      	pop	{r4, pc}
    38a6:	0000      	.short	0x0000
    38a8:	20001124 	.word	0x20001124
    38ac:	5f74696a 	.word	0x5f74696a
    38b0:	6d6d7564 	.word	0x6d6d7564
    38b4:	76635f79 	.word	0x76635f79
    38b8:	25203a65 	.word	0x25203a65
    38bc:	00000a70 	.word	0x00000a70
    38c0:	5f74696a 	.word	0x5f74696a
    38c4:	5f746e69 	.word	0x5f746e69
    38c8:	3a6d7573 	.word	0x3a6d7573
    38cc:	0a642520 	.word	0x0a642520
    38d0:	00000000 	.word	0x00000000

000038d4 <jit_int_sum>:
    38d4:	b4f0      	push	{r4, r5, r6, r7}
    38d6:	2200      	movs	r2, #0
    38d8:	2900      	cmp	r1, #0
    38da:	d003      	beq.n	38e4 <jit_int_sum+0x10>
    38dc:	2301      	movs	r3, #1
    38de:	f44f 54c0 	mov.w	r4, #6144	; 0x1800
    38e2:	e00b      	b.n	38fc <jit_int_sum+0x28>
    38e4:	f44f 5100 	mov.w	r1, #8192	; 0x2000
    38e8:	2201      	movs	r2, #1
    38ea:	8001      	strh	r1, [r0, #0]
    38ec:	e008      	b.n	3900 <jit_int_sum+0x2c>
    38ee:	4616      	mov	r6, r2
    38f0:	ea44 05c3 	orr.w	r5, r4, r3, lsl #3
    38f4:	1c52      	adds	r2, r2, #1
    38f6:	f820 5016 	strh.w	r5, [r0, r6, lsl #1]
    38fa:	1c5b      	adds	r3, r3, #1
    38fc:	428b      	cmp	r3, r1
    38fe:	d1f6      	bne.n	38ee <jit_int_sum+0x1a>
    3900:	f244 7170 	movw	r1, #18288	; 0x4770
    3904:	f820 1012 	strh.w	r1, [r0, r2, lsl #1]
    3908:	f3bf 8f4f 	dsb	sy
    390c:	f3bf 8f6f 	isb	sy
    3910:	f040 0401 	orr.w	r4, r0, #1
    3914:	46a4      	mov	ip, r4
    3916:	bcf0      	pop	{r4, r5, r6, r7}
    3918:	2304      	movs	r3, #4
    391a:	2203      	movs	r2, #3
    391c:	2102      	movs	r1, #2
    391e:	2001      	movs	r0, #1
    3920:	4760      	bx	ip
	...

00003924 <leave_debug_monitor>:
    3924:	b570      	push	{r4, r5, r6, lr}
    3926:	4606      	mov	r6, r0
    3928:	a018      	add	r0, pc, #96	; (adr r0, 398c <leave_debug_monitor+0x68>)
    392a:	69b2      	ldr	r2, [r6, #24]
    392c:	6971      	ldr	r1, [r6, #20]
    392e:	f7fe fbaa 	bl	2086 <debug_log>
    3932:	4d22      	ldr	r5, [pc, #136]	; (39bc <leave_debug_monitor+0x98>)
    3934:	4c21      	ldr	r4, [pc, #132]	; (39bc <leave_debug_monitor+0x98>)
    3936:	3ccc      	subs	r4, #204	; 0xcc
    3938:	6820      	ldr	r0, [r4, #0]
    393a:	6820      	ldr	r0, [r4, #0]
    393c:	f3c0 0040 	ubfx	r0, r0, #1, #1
    3940:	6821      	ldr	r1, [r4, #0]
    3942:	f3c1 0100 	ubfx	r1, r1, #0, #1
    3946:	b188      	cbz	r0, 396c <leave_debug_monitor+0x48>
    3948:	4630      	mov	r0, r6
    394a:	f001 fc93 	bl	5274 <run_patch_here>
    394e:	2800      	cmp	r0, #0
    3950:	d11b      	bne.n	398a <leave_debug_monitor+0x66>
    3952:	6828      	ldr	r0, [r5, #0]
    3954:	f440 2080 	orr.w	r0, r0, #262144	; 0x40000
    3958:	6028      	str	r0, [r5, #0]
    395a:	2002      	movs	r0, #2
    395c:	6020      	str	r0, [r4, #0]
    395e:	f7ff fce9 	bl	3334 <fpb_disable>
    3962:	e8bd 4070 	ldmia.w	sp!, {r4, r5, r6, lr}
    3966:	a016      	add	r0, pc, #88	; (adr r0, 39c0 <leave_debug_monitor+0x9c>)
    3968:	f7fe bb8d 	b.w	2086 <debug_log>
    396c:	2900      	cmp	r1, #0
    396e:	d00c      	beq.n	398a <leave_debug_monitor+0x66>
    3970:	6828      	ldr	r0, [r5, #0]
    3972:	f420 2080 	bic.w	r0, r0, #262144	; 0x40000
    3976:	6028      	str	r0, [r5, #0]
    3978:	2001      	movs	r0, #1
    397a:	6020      	str	r0, [r4, #0]
    397c:	f7ff fd1e 	bl	33bc <fpb_enable>
    3980:	e8bd 4070 	ldmia.w	sp!, {r4, r5, r6, lr}
    3984:	a013      	add	r0, pc, #76	; (adr r0, 39d4 <leave_debug_monitor+0xb0>)
    3986:	f7fe bb7e 	b.w	2086 <debug_log>
    398a:	bd70      	pop	{r4, r5, r6, pc}
    398c:	75626564 	.word	0x75626564
    3990:	6f6d5f67 	.word	0x6f6d5f67
    3994:	6f74696e 	.word	0x6f74696e
    3998:	61685f72 	.word	0x61685f72
    399c:	656c646e 	.word	0x656c646e
    39a0:	20635f72 	.word	0x20635f72
    39a4:	303a726c 	.word	0x303a726c
    39a8:	38302578 	.word	0x38302578
    39ac:	63702078 	.word	0x63702078
    39b0:	2578303a 	.word	0x2578303a
    39b4:	0a783830 	.word	0x0a783830
    39b8:	00000000 	.word	0x00000000
    39bc:	e000edfc 	.word	0xe000edfc
    39c0:	625f7369 	.word	0x625f7369
    39c4:	5f74706b 	.word	0x5f74706b
    39c8:	5f676264 	.word	0x5f676264
    39cc:	0a747665 	.word	0x0a747665
    39d0:	00000000 	.word	0x00000000
    39d4:	685f7369 	.word	0x685f7369
    39d8:	5f746c61 	.word	0x5f746c61
    39dc:	5f676264 	.word	0x5f676264
    39e0:	0a747665 	.word	0x0a747665
    39e4:	00000000 	.word	0x00000000

000039e8 <leave_fpb_bpkt>:
    39e8:	e92d 41f0 	stmdb	sp!, {r4, r5, r6, r7, r8, lr}
    39ec:	4604      	mov	r4, r0
    39ee:	460e      	mov	r6, r1
    39f0:	4815      	ldr	r0, [pc, #84]	; (3a48 <leave_fpb_bpkt+0x60>)
    39f2:	eb00 0586 	add.w	r5, r0, r6, lsl #2
    39f6:	68a8      	ldr	r0, [r5, #8]
    39f8:	f020 0701 	bic.w	r7, r0, #1
    39fc:	4638      	mov	r0, r7
    39fe:	f7ff fd91 	bl	3524 <get_dynamic_patch_by_bpkt>
    3a02:	2800      	cmp	r0, #0
    3a04:	d01a      	beq.n	3a3c <leave_fpb_bpkt+0x54>
    3a06:	2001      	movs	r0, #1
    3a08:	f001 fba8 	bl	515c <profile_start>
    3a0c:	2001      	movs	r0, #1
    3a0e:	f001 fb97 	bl	5140 <profile_end>
    3a12:	2100      	movs	r1, #0
    3a14:	2200      	movs	r2, #0
    3a16:	a00d      	add	r0, pc, #52	; (adr r0, 3a4c <leave_fpb_bpkt+0x64>)
    3a18:	f7fe fb35 	bl	2086 <debug_log>
    3a1c:	6963      	ldr	r3, [r4, #20]
    3a1e:	68a9      	ldr	r1, [r5, #8]
    3a20:	463a      	mov	r2, r7
    3a22:	a012      	add	r0, pc, #72	; (adr r0, 3a6c <leave_fpb_bpkt+0x84>)
    3a24:	f7fe fb2f 	bl	2086 <debug_log>
    3a28:	4630      	mov	r0, r6
    3a2a:	f7ff fc8d 	bl	3348 <fpb_disable_cur_inst>
    3a2e:	6961      	ldr	r1, [r4, #20]
    3a30:	a01a      	add	r0, pc, #104	; (adr r0, 3a9c <leave_fpb_bpkt+0xb4>)
    3a32:	f7fe fb28 	bl	2086 <debug_log>
    3a36:	68a8      	ldr	r0, [r5, #8]
    3a38:	e8bd 81f0 	ldmia.w	sp!, {r4, r5, r6, r7, r8, pc}
    3a3c:	4639      	mov	r1, r7
    3a3e:	a01c      	add	r0, pc, #112	; (adr r0, 3ab0 <leave_fpb_bpkt+0xc8>)
    3a40:	f7fe fb21 	bl	2086 <debug_log>
    3a44:	6960      	ldr	r0, [r4, #20]
    3a46:	e7f7      	b.n	3a38 <leave_fpb_bpkt+0x50>
    3a48:	e0002000 	.word	0xe0002000
    3a4c:	5f6e7572 	.word	0x5f6e7572
    3a50:	66706265 	.word	0x66706265
    3a54:	6c69665f 	.word	0x6c69665f
    3a58:	6e726574 	.word	0x6e726574
    3a5c:	73657220 	.word	0x73657220
    3a60:	7525203a 	.word	0x7525203a
    3a64:	0a752520 	.word	0x0a752520
    3a68:	00000000 	.word	0x00000000
    3a6c:	544c4946 	.word	0x544c4946
    3a70:	50205245 	.word	0x50205245
    3a74:	20535341 	.word	0x20535341
    3a78:	72646461 	.word	0x72646461
    3a7c:	2578303a 	.word	0x2578303a
    3a80:	20783830 	.word	0x20783830
    3a84:	74736e69 	.word	0x74736e69
    3a88:	2578303a 	.word	0x2578303a
    3a8c:	20783830 	.word	0x20783830
    3a90:	303a726c 	.word	0x303a726c
    3a94:	38302578 	.word	0x38302578
    3a98:	00000a78 	.word	0x00000a78
    3a9c:	5f746573 	.word	0x5f746573
    3aa0:	75746572 	.word	0x75746572
    3aa4:	203a6e72 	.word	0x203a6e72
    3aa8:	30257830 	.word	0x30257830
    3aac:	000a7838 	.word	0x000a7838
    3ab0:	7661656c 	.word	0x7661656c
    3ab4:	70665f65 	.word	0x70665f65
    3ab8:	70625f62 	.word	0x70625f62
    3abc:	203a746b 	.word	0x203a746b
    3ac0:	30257830 	.word	0x30257830
    3ac4:	000a7838 	.word	0x000a7838

00003ac8 <little_endian_16_bit>:
    3ac8:	ea4f 4030 	mov.w	r0, r0, ror #16
    3acc:	4770      	bx	lr
	...

00003ad0 <load_local_patch_to_ctx>:
    3ad0:	b570      	push	{r4, r5, r6, lr}
    3ad2:	4605      	mov	r5, r0
    3ad4:	682a      	ldr	r2, [r5, #0]
    3ad6:	8810      	ldrh	r0, [r2, #0]
    3ad8:	2801      	cmp	r0, #1
    3ada:	d024      	beq.n	3b26 <load_local_patch_to_ctx+0x56>
    3adc:	2802      	cmp	r0, #2
    3ade:	d122      	bne.n	3b26 <load_local_patch_to_ctx+0x56>
    3ae0:	4811      	ldr	r0, [pc, #68]	; (3b28 <load_local_patch_to_ctx+0x58>)
    3ae2:	6984      	ldr	r4, [r0, #24]
    3ae4:	2101      	movs	r1, #1
    3ae6:	e005      	b.n	3af4 <load_local_patch_to_ctx+0x24>
    3ae8:	6820      	ldr	r0, [r4, #0]
    3aea:	42a8      	cmp	r0, r5
    3aec:	d101      	bne.n	3af2 <load_local_patch_to_ctx+0x22>
    3aee:	2100      	movs	r1, #0
    3af0:	e002      	b.n	3af8 <load_local_patch_to_ctx+0x28>
    3af2:	6864      	ldr	r4, [r4, #4]
    3af4:	2c00      	cmp	r4, #0
    3af6:	d1f7      	bne.n	3ae8 <load_local_patch_to_ctx+0x18>
    3af8:	b121      	cbz	r1, 3b04 <load_local_patch_to_ctx+0x34>
    3afa:	4628      	mov	r0, r5
    3afc:	f7fd fe16 	bl	172c <add_dynamic_patch_to_ctx>
    3b00:	4604      	mov	r4, r0
    3b02:	e006      	b.n	3b12 <load_local_patch_to_ctx+0x42>
    3b04:	6850      	ldr	r0, [r2, #4]
    3b06:	f7fe fa1d 	bl	1f44 <calc_bpkt_addr>
    3b0a:	60a0      	str	r0, [r4, #8]
    3b0c:	f7fe fa2e 	bl	1f6c <calc_bpkt_pc>
    3b10:	60e0      	str	r0, [r4, #12]
    3b12:	e9d4 2102 	ldrd	r2, r1, [r4, #8]
    3b16:	a005      	add	r0, pc, #20	; (adr r0, 3b2c <load_local_patch_to_ctx+0x5c>)
    3b18:	f7fe fab5 	bl	2086 <debug_log>
    3b1c:	4628      	mov	r0, r5
    3b1e:	e8bd 4070 	ldmia.w	sp!, {r4, r5, r6, lr}
    3b22:	f7fd bdf3 	b.w	170c <active_patch>
    3b26:	bd70      	pop	{r4, r5, r6, pc}
    3b28:	20001040 	.word	0x20001040
    3b2c:	616e7964 	.word	0x616e7964
    3b30:	2063696d 	.word	0x2063696d
    3b34:	63746170 	.word	0x63746170
    3b38:	70203a68 	.word	0x70203a68
    3b3c:	78303d63 	.word	0x78303d63
    3b40:	78383025 	.word	0x78383025
    3b44:	736e6920 	.word	0x736e6920
    3b48:	78303d74 	.word	0x78303d74
    3b4c:	78383025 	.word	0x78383025
    3b50:	0000000a 	.word	0x0000000a

00003b54 <log_init>:
    3b54:	b510      	push	{r4, lr}
    3b56:	2100      	movs	r1, #0
    3b58:	4608      	mov	r0, r1
    3b5a:	f000 fe71 	bl	4840 <nrf_log_init>
    3b5e:	b108      	cbz	r0, 3b64 <log_init+0x10>
    3b60:	f7fd ffa4 	bl	1aac <app_error_handler_bare>
    3b64:	e8bd 4010 	ldmia.w	sp!, {r4, lr}
    3b68:	f000 bcd0 	b.w	450c <nrf_log_default_backends_init>

00003b6c <log_print_porting>:
    3b6c:	b570      	push	{r4, r5, r6, lr}
    3b6e:	4605      	mov	r5, r0
    3b70:	460c      	mov	r4, r1
    3b72:	f44f 7180 	mov.w	r1, #256	; 0x100
    3b76:	480d      	ldr	r0, [pc, #52]	; (3bac <log_print_porting+0x40>)
    3b78:	f7fc fcc7 	bl	50a <__aeabi_memclr>
    3b7c:	462a      	mov	r2, r5
    3b7e:	21ff      	movs	r1, #255	; 0xff
    3b80:	480a      	ldr	r0, [pc, #40]	; (3bac <log_print_porting+0x40>)
    3b82:	6823      	ldr	r3, [r4, #0]
    3b84:	f7fd f938 	bl	df8 <__0vsnprintf>
    3b88:	4c08      	ldr	r4, [pc, #32]	; (3bac <log_print_porting+0x40>)
    3b8a:	e004      	b.n	3b96 <log_print_porting+0x2a>
    3b8c:	280a      	cmp	r0, #10
    3b8e:	d006      	beq.n	3b9e <log_print_porting+0x32>
    3b90:	f001 fe1a 	bl	57c8 <shell_put_char>
    3b94:	1c64      	adds	r4, r4, #1
    3b96:	7820      	ldrb	r0, [r4, #0]
    3b98:	2800      	cmp	r0, #0
    3b9a:	d1f7      	bne.n	3b8c <log_print_porting+0x20>
    3b9c:	bd70      	pop	{r4, r5, r6, pc}
    3b9e:	200d      	movs	r0, #13
    3ba0:	f001 fe12 	bl	57c8 <shell_put_char>
    3ba4:	200a      	movs	r0, #10
    3ba6:	f001 fe0f 	bl	57c8 <shell_put_char>
    3baa:	e7f3      	b.n	3b94 <log_print_porting+0x28>
    3bac:	20000f40 	.word	0x20000f40

00003bb0 <log_skip>:
    3bb0:	e92d 41ff 	stmdb	sp!, {r0, r1, r2, r3, r4, r5, r6, r7, r8, lr}
    3bb4:	2500      	movs	r5, #0
    3bb6:	4826      	ldr	r0, [pc, #152]	; (3c50 <log_skip+0xa0>)
    3bb8:	f000 f959 	bl	3e6e <nrf_atomic_flag_set>
    3bbc:	4824      	ldr	r0, [pc, #144]	; (3c50 <log_skip+0xa0>)
    3bbe:	1f00      	subs	r0, r0, #4
    3bc0:	4607      	mov	r7, r0
    3bc2:	f000 f954 	bl	3e6e <nrf_atomic_flag_set>
    3bc6:	4e23      	ldr	r6, [pc, #140]	; (3c54 <log_skip+0xa4>)
    3bc8:	6870      	ldr	r0, [r6, #4]
    3bca:	9003      	str	r0, [sp, #12]
    3bcc:	68b4      	ldr	r4, [r6, #8]
    3bce:	4020      	ands	r0, r4
    3bd0:	eb06 0080 	add.w	r0, r6, r0, lsl #2
    3bd4:	300c      	adds	r0, #12
    3bd6:	a903      	add	r1, sp, #12
    3bd8:	f7ff fe38 	bl	384c <invalid_packets_omit>
    3bdc:	b128      	cbz	r0, 3bea <log_skip+0x3a>
    3bde:	9803      	ldr	r0, [sp, #12]
    3be0:	4020      	ands	r0, r4
    3be2:	eb06 0080 	add.w	r0, r6, r0, lsl #2
    3be6:	300c      	adds	r0, #12
    3be8:	e7f5      	b.n	3bd6 <log_skip+0x26>
    3bea:	2000      	movs	r0, #0
    3bec:	466b      	mov	r3, sp
    3bee:	9903      	ldr	r1, [sp, #12]
    3bf0:	1c4a      	adds	r2, r1, #1
    3bf2:	4021      	ands	r1, r4
    3bf4:	eb06 0181 	add.w	r1, r6, r1, lsl #2
    3bf8:	9203      	str	r2, [sp, #12]
    3bfa:	68c9      	ldr	r1, [r1, #12]
    3bfc:	f843 1020 	str.w	r1, [r3, r0, lsl #2]
    3c00:	1c40      	adds	r0, r0, #1
    3c02:	2802      	cmp	r0, #2
    3c04:	d3f3      	bcc.n	3bee <log_skip+0x3e>
    3c06:	9800      	ldr	r0, [sp, #0]
    3c08:	f000 0003 	and.w	r0, r0, #3
    3c0c:	2801      	cmp	r0, #1
    3c0e:	d00c      	beq.n	3c2a <log_skip+0x7a>
    3c10:	2802      	cmp	r0, #2
    3c12:	d112      	bne.n	3c3a <log_skip+0x8a>
    3c14:	f8bd 5006 	ldrh.w	r5, [sp, #6]
    3c18:	9800      	ldr	r0, [sp, #0]
    3c1a:	2103      	movs	r1, #3
    3c1c:	eb01 5090 	add.w	r0, r1, r0, lsr #22
    3c20:	9903      	ldr	r1, [sp, #12]
    3c22:	eb01 0090 	add.w	r0, r1, r0, lsr #2
    3c26:	9003      	str	r0, [sp, #12]
    3c28:	e007      	b.n	3c3a <log_skip+0x8a>
    3c2a:	f8bd 5006 	ldrh.w	r5, [sp, #6]
    3c2e:	9800      	ldr	r0, [sp, #0]
    3c30:	9903      	ldr	r1, [sp, #12]
    3c32:	f3c0 1083 	ubfx	r0, r0, #6, #4
    3c36:	4408      	add	r0, r1
    3c38:	9003      	str	r0, [sp, #12]
    3c3a:	4638      	mov	r0, r7
    3c3c:	f000 f914 	bl	3e68 <nrf_atomic_flag_clear_fetch>
    3c40:	b108      	cbz	r0, 3c46 <log_skip+0x96>
    3c42:	9803      	ldr	r0, [sp, #12]
    3c44:	6070      	str	r0, [r6, #4]
    3c46:	b004      	add	sp, #16
    3c48:	4628      	mov	r0, r5
    3c4a:	e8bd 81f0 	ldmia.w	sp!, {r4, r5, r6, r7, r8, pc}
    3c4e:	0000      	.short	0x0000
    3c50:	20000c28 	.word	0x20000c28
    3c54:	20000810 	.word	0x20000810

00003c58 <main>:
    3c58:	f7ff fc7e 	bl	3558 <gpio_output_voltage_setup_3v3>
    3c5c:	f7ff ff7a 	bl	3b54 <log_init>
    3c60:	f001 ffe0 	bl	5c24 <uart_config>
    3c64:	2003      	movs	r0, #3
    3c66:	f7fe f8cb 	bl	1e00 <bsp_board_init>
    3c6a:	482d      	ldr	r0, [pc, #180]	; (3d20 <main+0xc8>)
    3c6c:	492d      	ldr	r1, [pc, #180]	; (3d24 <main+0xcc>)
    3c6e:	1a40      	subs	r0, r0, r1
    3c70:	08c0      	lsrs	r0, r0, #3
    3c72:	2103      	movs	r1, #3
    3c74:	eb01 4000 	add.w	r0, r1, r0, lsl #16
    3c78:	a12b      	add	r1, pc, #172	; (adr r1, 3d28 <main+0xd0>)
    3c7a:	f000 fd7f 	bl	477c <nrf_log_frontend_std_0>
    3c7e:	f000 fc53 	bl	4528 <nrf_log_frontend_dequeue>
    3c82:	2800      	cmp	r0, #0
    3c84:	d1fb      	bne.n	3c7e <main+0x26>
    3c86:	f001 fb73 	bl	5370 <run_shell_cli>
    3c8a:	200b      	movs	r0, #11
    3c8c:	f000 fb52 	bl	4334 <nrf_gpio_pin_read>
    3c90:	b968      	cbnz	r0, 3cae <main+0x56>
    3c92:	2001      	movs	r0, #1
    3c94:	f001 f964 	bl	4f60 <on_button_click>
    3c98:	200d      	movs	r0, #13
    3c9a:	f000 fb08 	bl	42ae <nrf_gpio_pin_clear>
    3c9e:	200b      	movs	r0, #11
    3ca0:	f000 fb48 	bl	4334 <nrf_gpio_pin_read>
    3ca4:	2800      	cmp	r0, #0
    3ca6:	d0fa      	beq.n	3c9e <main+0x46>
    3ca8:	200d      	movs	r0, #13
    3caa:	f000 fb4e 	bl	434a <nrf_gpio_pin_set>
    3cae:	200c      	movs	r0, #12
    3cb0:	f000 fb40 	bl	4334 <nrf_gpio_pin_read>
    3cb4:	b968      	cbnz	r0, 3cd2 <main+0x7a>
    3cb6:	2002      	movs	r0, #2
    3cb8:	f001 f952 	bl	4f60 <on_button_click>
    3cbc:	200e      	movs	r0, #14
    3cbe:	f000 faf6 	bl	42ae <nrf_gpio_pin_clear>
    3cc2:	200c      	movs	r0, #12
    3cc4:	f000 fb36 	bl	4334 <nrf_gpio_pin_read>
    3cc8:	2800      	cmp	r0, #0
    3cca:	d0fa      	beq.n	3cc2 <main+0x6a>
    3ccc:	200e      	movs	r0, #14
    3cce:	f000 fb3c 	bl	434a <nrf_gpio_pin_set>
    3cd2:	2018      	movs	r0, #24
    3cd4:	f000 fb2e 	bl	4334 <nrf_gpio_pin_read>
    3cd8:	b968      	cbnz	r0, 3cf6 <main+0x9e>
    3cda:	2003      	movs	r0, #3
    3cdc:	f001 f940 	bl	4f60 <on_button_click>
    3ce0:	200f      	movs	r0, #15
    3ce2:	f000 fae4 	bl	42ae <nrf_gpio_pin_clear>
    3ce6:	2018      	movs	r0, #24
    3ce8:	f000 fb24 	bl	4334 <nrf_gpio_pin_read>
    3cec:	2800      	cmp	r0, #0
    3cee:	d0fa      	beq.n	3ce6 <main+0x8e>
    3cf0:	200f      	movs	r0, #15
    3cf2:	f000 fb2a 	bl	434a <nrf_gpio_pin_set>
    3cf6:	2019      	movs	r0, #25
    3cf8:	f000 fb1c 	bl	4334 <nrf_gpio_pin_read>
    3cfc:	2800      	cmp	r0, #0
    3cfe:	d1c4      	bne.n	3c8a <main+0x32>
    3d00:	2004      	movs	r0, #4
    3d02:	f001 f92d 	bl	4f60 <on_button_click>
    3d06:	2010      	movs	r0, #16
    3d08:	f000 fad1 	bl	42ae <nrf_gpio_pin_clear>
    3d0c:	2019      	movs	r0, #25
    3d0e:	f000 fb11 	bl	4334 <nrf_gpio_pin_read>
    3d12:	2800      	cmp	r0, #0
    3d14:	d0fa      	beq.n	3d0c <main+0xb4>
    3d16:	2010      	movs	r0, #16
    3d18:	f000 fb17 	bl	434a <nrf_gpio_pin_set>
    3d1c:	e7b5      	b.n	3c8a <main+0x32>
    3d1e:	0000      	.short	0x0000
    3d20:	000064b0 	.word	0x000064b0
    3d24:	00000000 	.word	0x00000000
    3d28:	2079656b 	.word	0x2079656b
    3d2c:	6d617865 	.word	0x6d617865
    3d30:	20656c70 	.word	0x20656c70
    3d34:	72617473 	.word	0x72617473
    3d38:	00646574 	.word	0x00646574

00003d3c <malloc>:
    3d3c:	b5f0      	push	{r4, r5, r6, r7, lr}
    3d3e:	300b      	adds	r0, #11
    3d40:	4d15      	ldr	r5, [pc, #84]	; (3d98 <malloc+0x5c>)
    3d42:	f020 0107 	bic.w	r1, r0, #7
    3d46:	2400      	movs	r4, #0
    3d48:	4a14      	ldr	r2, [pc, #80]	; (3d9c <malloc+0x60>)
    3d4a:	e00f      	b.n	3d6c <malloc+0x30>
    3d4c:	6803      	ldr	r3, [r0, #0]
    3d4e:	428b      	cmp	r3, r1
    3d50:	d30b      	bcc.n	3d6a <malloc+0x2e>
    3d52:	428b      	cmp	r3, r1
    3d54:	d905      	bls.n	3d62 <malloc+0x26>
    3d56:	1a5e      	subs	r6, r3, r1
    3d58:	1843      	adds	r3, r0, r1
    3d5a:	6847      	ldr	r7, [r0, #4]
    3d5c:	e9c3 6700 	strd	r6, r7, [r3]
    3d60:	e000      	b.n	3d64 <malloc+0x28>
    3d62:	6843      	ldr	r3, [r0, #4]
    3d64:	6013      	str	r3, [r2, #0]
    3d66:	c002      	stmia	r0!, {r1}
    3d68:	e004      	b.n	3d74 <malloc+0x38>
    3d6a:	1d02      	adds	r2, r0, #4
    3d6c:	6810      	ldr	r0, [r2, #0]
    3d6e:	2800      	cmp	r0, #0
    3d70:	d1ec      	bne.n	3d4c <malloc+0x10>
    3d72:	4620      	mov	r0, r4
    3d74:	2800      	cmp	r0, #0
    3d76:	d102      	bne.n	3d7e <malloc+0x42>
    3d78:	6828      	ldr	r0, [r5, #0]
    3d7a:	b108      	cbz	r0, 3d80 <malloc+0x44>
    3d7c:	2000      	movs	r0, #0
    3d7e:	bdf0      	pop	{r4, r5, r6, r7, pc}
    3d80:	4a06      	ldr	r2, [pc, #24]	; (3d9c <malloc+0x60>)
    3d82:	4807      	ldr	r0, [pc, #28]	; (3da0 <malloc+0x64>)
    3d84:	6010      	str	r0, [r2, #0]
    3d86:	4a07      	ldr	r2, [pc, #28]	; (3da4 <malloc+0x68>)
    3d88:	1a12      	subs	r2, r2, r0
    3d8a:	f022 0207 	bic.w	r2, r2, #7
    3d8e:	e9c0 2400 	strd	r2, r4, [r0]
    3d92:	2001      	movs	r0, #1
    3d94:	6028      	str	r0, [r5, #0]
    3d96:	e7d7      	b.n	3d48 <malloc+0xc>
    3d98:	20000404 	.word	0x20000404
    3d9c:	20000400 	.word	0x20000400
    3da0:	2000192c 	.word	0x2000192c
    3da4:	20003928 	.word	0x20003928

00003da8 <memobj_op>:
    3da8:	e92d 47f0 	stmdb	sp!, {r4, r5, r6, r7, r8, r9, sl, lr}
    3dac:	4689      	mov	r9, r1
    3dae:	f8dd a020 	ldr.w	sl, [sp, #32]
    3db2:	4605      	mov	r5, r0
    3db4:	88c6      	ldrh	r6, [r0, #6]
    3db6:	7940      	ldrb	r0, [r0, #5]
    3db8:	fb06 f700 	mul.w	r7, r6, r0
    3dbc:	1f3f      	subs	r7, r7, #4
    3dbe:	1d18      	adds	r0, r3, #4
    3dc0:	4601      	mov	r1, r0
    3dc2:	fbb0 f0f6 	udiv	r0, r0, r6
    3dc6:	fbb1 f4f6 	udiv	r4, r1, r6
    3dca:	fb06 1114 	mls	r1, r6, r4, r1
    3dce:	6814      	ldr	r4, [r2, #0]
    3dd0:	eb04 0c03 	add.w	ip, r4, r3
    3dd4:	45bc      	cmp	ip, r7
    3dd6:	d900      	bls.n	3dda <memobj_op+0x32>
    3dd8:	1afc      	subs	r4, r7, r3
    3dda:	6014      	str	r4, [r2, #0]
    3ddc:	e001      	b.n	3de2 <memobj_op+0x3a>
    3dde:	682d      	ldr	r5, [r5, #0]
    3de0:	1e40      	subs	r0, r0, #1
    3de2:	2800      	cmp	r0, #0
    3de4:	d1fb      	bne.n	3dde <memobj_op+0x36>
    3de6:	4680      	mov	r8, r0
    3de8:	1a77      	subs	r7, r6, r1
    3dea:	42a7      	cmp	r7, r4
    3dec:	d91b      	bls.n	3e26 <memobj_op+0x7e>
    3dee:	4627      	mov	r7, r4
    3df0:	e019      	b.n	3e26 <memobj_op+0x7e>
    3df2:	eb09 0308 	add.w	r3, r9, r8
    3df6:	1868      	adds	r0, r5, r1
    3df8:	1d00      	adds	r0, r0, #4
    3dfa:	f1ba 0f00 	cmp.w	sl, #0
    3dfe:	d005      	beq.n	3e0c <memobj_op+0x64>
    3e00:	4601      	mov	r1, r0
    3e02:	463a      	mov	r2, r7
    3e04:	4618      	mov	r0, r3
    3e06:	f7fc fb67 	bl	4d8 <__aeabi_memcpy>
    3e0a:	e003      	b.n	3e14 <memobj_op+0x6c>
    3e0c:	463a      	mov	r2, r7
    3e0e:	4619      	mov	r1, r3
    3e10:	f7fc fb62 	bl	4d8 <__aeabi_memcpy>
    3e14:	2100      	movs	r1, #0
    3e16:	682d      	ldr	r5, [r5, #0]
    3e18:	1be4      	subs	r4, r4, r7
    3e1a:	44b8      	add	r8, r7
    3e1c:	42a6      	cmp	r6, r4
    3e1e:	d901      	bls.n	3e24 <memobj_op+0x7c>
    3e20:	4627      	mov	r7, r4
    3e22:	e000      	b.n	3e26 <memobj_op+0x7e>
    3e24:	4637      	mov	r7, r6
    3e26:	2c00      	cmp	r4, #0
    3e28:	d1e3      	bne.n	3df2 <memobj_op+0x4a>
    3e2a:	e8bd 87f0 	ldmia.w	sp!, {r4, r5, r6, r7, r8, r9, sl, pc}
	...

00003e30 <module_idx_get>:
    3e30:	b530      	push	{r4, r5, lr}
    3e32:	4604      	mov	r4, r0
    3e34:	2900      	cmp	r1, #0
    3e36:	d012      	beq.n	3e5e <module_idx_get+0x2e>
    3e38:	f000 fd20 	bl	487c <nrf_log_module_cnt_get>
    3e3c:	2100      	movs	r1, #0
    3e3e:	4b09      	ldr	r3, [pc, #36]	; (3e64 <module_idx_get+0x34>)
    3e40:	e009      	b.n	3e56 <module_idx_get+0x26>
    3e42:	eb03 0281 	add.w	r2, r3, r1, lsl #2
    3e46:	6825      	ldr	r5, [r4, #0]
    3e48:	8812      	ldrh	r2, [r2, #0]
    3e4a:	42aa      	cmp	r2, r5
    3e4c:	d102      	bne.n	3e54 <module_idx_get+0x24>
    3e4e:	6021      	str	r1, [r4, #0]
    3e50:	2000      	movs	r0, #0
    3e52:	bd30      	pop	{r4, r5, pc}
    3e54:	1c49      	adds	r1, r1, #1
    3e56:	4281      	cmp	r1, r0
    3e58:	d3f3      	bcc.n	3e42 <module_idx_get+0x12>
    3e5a:	2005      	movs	r0, #5
    3e5c:	bd30      	pop	{r4, r5, pc}
    3e5e:	2000      	movs	r0, #0
    3e60:	bd30      	pop	{r4, r5, pc}
    3e62:	0000      	.short	0x0000
    3e64:	00000000 	.word	0x00000000

00003e68 <nrf_atomic_flag_clear_fetch>:
    3e68:	2100      	movs	r1, #0
    3e6a:	f000 b809 	b.w	3e80 <nrf_atomic_u32_fetch_and>

00003e6e <nrf_atomic_flag_set>:
    3e6e:	2101      	movs	r1, #1
    3e70:	f000 b810 	b.w	3e94 <nrf_atomic_u32_or>

00003e74 <nrf_atomic_u32_add>:
    3e74:	b508      	push	{r3, lr}
    3e76:	466a      	mov	r2, sp
    3e78:	f7fc f9ff 	bl	27a <__asm___12_nrf_atomic_c_85ca2469__nrf_atomic_internal_add>
    3e7c:	9800      	ldr	r0, [sp, #0]
    3e7e:	bd08      	pop	{r3, pc}

00003e80 <nrf_atomic_u32_fetch_and>:
    3e80:	b508      	push	{r3, lr}
    3e82:	466a      	mov	r2, sp
    3e84:	f7fc f9df 	bl	246 <__asm___12_nrf_atomic_c_85ca2469__nrf_atomic_internal_and>
    3e88:	bd08      	pop	{r3, pc}

00003e8a <nrf_atomic_u32_fetch_store>:
    3e8a:	b508      	push	{r3, lr}
    3e8c:	466a      	mov	r2, sp
    3e8e:	f7fc f9c1 	bl	214 <__asm___12_nrf_atomic_c_85ca2469__nrf_atomic_internal_mov>
    3e92:	bd08      	pop	{r3, pc}

00003e94 <nrf_atomic_u32_or>:
    3e94:	b508      	push	{r3, lr}
    3e96:	466a      	mov	r2, sp
    3e98:	f7fc f9c8 	bl	22c <__asm___12_nrf_atomic_c_85ca2469__nrf_atomic_internal_orr>
    3e9c:	9800      	ldr	r0, [sp, #0]
    3e9e:	bd08      	pop	{r3, pc}

00003ea0 <nrf_atomic_u32_sub>:
    3ea0:	b508      	push	{r3, lr}
    3ea2:	466a      	mov	r2, sp
    3ea4:	f7fc f9f6 	bl	294 <__asm___12_nrf_atomic_c_85ca2469__nrf_atomic_internal_sub>
    3ea8:	9800      	ldr	r0, [sp, #0]
    3eaa:	bd08      	pop	{r3, pc}

00003eac <nrf_balloc_alloc>:
    3eac:	b570      	push	{r4, r5, r6, lr}
    3eae:	4604      	mov	r4, r0
    3eb0:	2500      	movs	r5, #0
    3eb2:	2000      	movs	r0, #0
    3eb4:	f7fd fece 	bl	1c54 <app_util_critical_region_enter>
    3eb8:	6821      	ldr	r1, [r4, #0]
    3eba:	6862      	ldr	r2, [r4, #4]
    3ebc:	6808      	ldr	r0, [r1, #0]
    3ebe:	4290      	cmp	r0, r2
    3ec0:	d90f      	bls.n	3ee2 <nrf_balloc_alloc+0x36>
    3ec2:	1e40      	subs	r0, r0, #1
    3ec4:	6008      	str	r0, [r1, #0]
    3ec6:	7801      	ldrb	r1, [r0, #0]
    3ec8:	4620      	mov	r0, r4
    3eca:	f000 f82b 	bl	3f24 <nrf_balloc_idx2block>
    3ece:	4605      	mov	r5, r0
    3ed0:	6820      	ldr	r0, [r4, #0]
    3ed2:	7a21      	ldrb	r1, [r4, #8]
    3ed4:	7802      	ldrb	r2, [r0, #0]
    3ed6:	1a89      	subs	r1, r1, r2
    3ed8:	b2c9      	uxtb	r1, r1
    3eda:	7902      	ldrb	r2, [r0, #4]
    3edc:	428a      	cmp	r2, r1
    3ede:	d200      	bcs.n	3ee2 <nrf_balloc_alloc+0x36>
    3ee0:	7101      	strb	r1, [r0, #4]
    3ee2:	2000      	movs	r0, #0
    3ee4:	f7fd feb8 	bl	1c58 <app_util_critical_region_exit>
    3ee8:	4628      	mov	r0, r5
    3eea:	bd70      	pop	{r4, r5, r6, pc}

00003eec <nrf_balloc_block2idx>:
    3eec:	68c2      	ldr	r2, [r0, #12]
    3eee:	8a00      	ldrh	r0, [r0, #16]
    3ef0:	1a89      	subs	r1, r1, r2
    3ef2:	fbb1 f0f0 	udiv	r0, r1, r0
    3ef6:	b2c0      	uxtb	r0, r0
    3ef8:	4770      	bx	lr

00003efa <nrf_balloc_free>:
    3efa:	b570      	push	{r4, r5, r6, lr}
    3efc:	4605      	mov	r5, r0
    3efe:	460c      	mov	r4, r1
    3f00:	2000      	movs	r0, #0
    3f02:	f7fd fea7 	bl	1c54 <app_util_critical_region_enter>
    3f06:	4621      	mov	r1, r4
    3f08:	4628      	mov	r0, r5
    3f0a:	f7ff ffef 	bl	3eec <nrf_balloc_block2idx>
    3f0e:	6829      	ldr	r1, [r5, #0]
    3f10:	4602      	mov	r2, r0
    3f12:	6808      	ldr	r0, [r1, #0]
    3f14:	1c43      	adds	r3, r0, #1
    3f16:	600b      	str	r3, [r1, #0]
    3f18:	7002      	strb	r2, [r0, #0]
    3f1a:	e8bd 4070 	ldmia.w	sp!, {r4, r5, r6, lr}
    3f1e:	2000      	movs	r0, #0
    3f20:	f7fd be9a 	b.w	1c58 <app_util_critical_region_exit>

00003f24 <nrf_balloc_idx2block>:
    3f24:	68c2      	ldr	r2, [r0, #12]
    3f26:	8a00      	ldrh	r0, [r0, #16]
    3f28:	fb01 2000 	mla	r0, r1, r0, r2
    3f2c:	4770      	bx	lr

00003f2e <nrf_balloc_init>:
    3f2e:	b510      	push	{r4, lr}
    3f30:	2800      	cmp	r0, #0
    3f32:	d006      	beq.n	3f42 <nrf_balloc_init+0x14>
    3f34:	7a01      	ldrb	r1, [r0, #8]
    3f36:	6842      	ldr	r2, [r0, #4]
    3f38:	1a89      	subs	r1, r1, r2
    3f3a:	b2c9      	uxtb	r1, r1
    3f3c:	6803      	ldr	r3, [r0, #0]
    3f3e:	601a      	str	r2, [r3, #0]
    3f40:	e006      	b.n	3f50 <nrf_balloc_init+0x22>
    3f42:	200e      	movs	r0, #14
    3f44:	bd10      	pop	{r4, pc}
    3f46:	6803      	ldr	r3, [r0, #0]
    3f48:	681a      	ldr	r2, [r3, #0]
    3f4a:	1c54      	adds	r4, r2, #1
    3f4c:	601c      	str	r4, [r3, #0]
    3f4e:	7011      	strb	r1, [r2, #0]
    3f50:	1e49      	subs	r1, r1, #1
    3f52:	b2c9      	uxtb	r1, r1
    3f54:	d2f7      	bcs.n	3f46 <nrf_balloc_init+0x18>
    3f56:	6800      	ldr	r0, [r0, #0]
    3f58:	2100      	movs	r1, #0
    3f5a:	7101      	strb	r1, [r0, #4]
    3f5c:	2000      	movs	r0, #0
    3f5e:	bd10      	pop	{r4, pc}

00003f60 <nrf_drv_uart_init>:
    3f60:	b5f0      	push	{r4, r5, r6, r7, lr}
    3f62:	b089      	sub	sp, #36	; 0x24
    3f64:	4605      	mov	r5, r0
    3f66:	4616      	mov	r6, r2
    3f68:	782c      	ldrb	r4, [r5, #0]
    3f6a:	4814      	ldr	r0, [pc, #80]	; (3fbc <nrf_drv_uart_init+0x5c>)
    3f6c:	f840 6024 	str.w	r6, [r0, r4, lsl #2]
    3f70:	4a12      	ldr	r2, [pc, #72]	; (3fbc <nrf_drv_uart_init+0x5c>)
    3f72:	6908      	ldr	r0, [r1, #16]
    3f74:	3208      	adds	r2, #8
    3f76:	f842 0024 	str.w	r0, [r2, r4, lsl #2]
    3f7a:	f1a2 070c 	sub.w	r7, r2, #12
    3f7e:	7f48      	ldrb	r0, [r1, #29]
    3f80:	5538      	strb	r0, [r7, r4]
    3f82:	2220      	movs	r2, #32
    3f84:	a801      	add	r0, sp, #4
    3f86:	f7fc faa7 	bl	4d8 <__aeabi_memcpy>
    3f8a:	9405      	str	r4, [sp, #20]
    3f8c:	7828      	ldrb	r0, [r5, #0]
    3f8e:	5c38      	ldrb	r0, [r7, r0]
    3f90:	b148      	cbz	r0, 3fa6 <nrf_drv_uart_init+0x46>
    3f92:	b10e      	cbz	r6, 3f98 <nrf_drv_uart_init+0x38>
    3f94:	4a0a      	ldr	r2, [pc, #40]	; (3fc0 <nrf_drv_uart_init+0x60>)
    3f96:	e000      	b.n	3f9a <nrf_drv_uart_init+0x3a>
    3f98:	2200      	movs	r2, #0
    3f9a:	a901      	add	r1, sp, #4
    3f9c:	1d28      	adds	r0, r5, #4
    3f9e:	f000 fec5 	bl	4d2c <nrfx_uarte_init>
    3fa2:	b009      	add	sp, #36	; 0x24
    3fa4:	bdf0      	pop	{r4, r5, r6, r7, pc}
    3fa6:	b10e      	cbz	r6, 3fac <nrf_drv_uart_init+0x4c>
    3fa8:	4a06      	ldr	r2, [pc, #24]	; (3fc4 <nrf_drv_uart_init+0x64>)
    3faa:	e000      	b.n	3fae <nrf_drv_uart_init+0x4e>
    3fac:	2200      	movs	r2, #0
    3fae:	a901      	add	r1, sp, #4
    3fb0:	f105 000c 	add.w	r0, r5, #12
    3fb4:	f000 fdb2 	bl	4b1c <nrfx_uart_init>
    3fb8:	e7f3      	b.n	3fa2 <nrf_drv_uart_init+0x42>
    3fba:	0000      	.short	0x0000
    3fbc:	20000004 	.word	0x20000004
    3fc0:	00005ea9 	.word	0x00005ea9
    3fc4:	00005d45 	.word	0x00005d45

00003fc8 <nrf_drv_uart_rx>:
    3fc8:	b430      	push	{r4, r5}
    3fca:	7804      	ldrb	r4, [r0, #0]
    3fcc:	4b05      	ldr	r3, [pc, #20]	; (3fe4 <nrf_drv_uart_rx+0x1c>)
    3fce:	5d1b      	ldrb	r3, [r3, r4]
    3fd0:	2b00      	cmp	r3, #0
    3fd2:	d003      	beq.n	3fdc <nrf_drv_uart_rx+0x14>
    3fd4:	bc30      	pop	{r4, r5}
    3fd6:	1d00      	adds	r0, r0, #4
    3fd8:	f000 bee0 	b.w	4d9c <nrfx_uarte_rx>
    3fdc:	bc30      	pop	{r4, r5}
    3fde:	300c      	adds	r0, #12
    3fe0:	f000 bdd6 	b.w	4b90 <nrfx_uart_rx>
    3fe4:	20000000 	.word	0x20000000

00003fe8 <nrf_drv_uart_tx>:
    3fe8:	b430      	push	{r4, r5}
    3fea:	7804      	ldrb	r4, [r0, #0]
    3fec:	4b05      	ldr	r3, [pc, #20]	; (4004 <nrf_drv_uart_tx+0x1c>)
    3fee:	5d1b      	ldrb	r3, [r3, r4]
    3ff0:	2b00      	cmp	r3, #0
    3ff2:	d003      	beq.n	3ffc <nrf_drv_uart_tx+0x14>
    3ff4:	bc30      	pop	{r4, r5}
    3ff6:	1d00      	adds	r0, r0, #4
    3ff8:	f000 bf50 	b.w	4e9c <nrfx_uarte_tx>
    3ffc:	bc30      	pop	{r4, r5}
    3ffe:	300c      	adds	r0, #12
    4000:	f000 be3c 	b.w	4c7c <nrfx_uart_tx>
    4004:	20000000 	.word	0x20000000

00004008 <nrf_fprintf>:
    4008:	b40f      	push	{r0, r1, r2, r3}
    400a:	b508      	push	{r3, lr}
    400c:	9903      	ldr	r1, [sp, #12]
    400e:	2900      	cmp	r1, #0
    4010:	d004      	beq.n	401c <nrf_fprintf+0x14>
    4012:	aa04      	add	r2, sp, #16
    4014:	9200      	str	r2, [sp, #0]
    4016:	466a      	mov	r2, sp
    4018:	f000 f80f 	bl	403a <nrf_fprintf_fmt>
    401c:	b001      	add	sp, #4
    401e:	f85d fb14 	ldr.w	pc, [sp], #20

00004022 <nrf_fprintf_buffer_flush>:
    4022:	b510      	push	{r4, lr}
    4024:	4604      	mov	r4, r0
    4026:	68a2      	ldr	r2, [r4, #8]
    4028:	2a00      	cmp	r2, #0
    402a:	d005      	beq.n	4038 <nrf_fprintf_buffer_flush+0x16>
    402c:	e9d4 0304 	ldrd	r0, r3, [r4, #16]
    4030:	6821      	ldr	r1, [r4, #0]
    4032:	4798      	blx	r3
    4034:	2000      	movs	r0, #0
    4036:	60a0      	str	r0, [r4, #8]
    4038:	bd10      	pop	{r4, pc}

0000403a <nrf_fprintf_fmt>:
    403a:	e92d 41fc 	stmdb	sp!, {r2, r3, r4, r5, r6, r7, r8, lr}
    403e:	4606      	mov	r6, r0
    4040:	460c      	mov	r4, r1
    4042:	4615      	mov	r5, r2
    4044:	2c00      	cmp	r4, #0
    4046:	d075      	beq.n	4134 <nrf_fprintf_fmt+0xfa>
    4048:	f814 1b01 	ldrb.w	r1, [r4], #1
    404c:	b139      	cbz	r1, 405e <nrf_fprintf_fmt+0x24>
    404e:	2925      	cmp	r1, #37	; 0x25
    4050:	d00d      	beq.n	406e <nrf_fprintf_fmt+0x34>
    4052:	4630      	mov	r0, r6
    4054:	f7fd ff54 	bl	1f00 <buffer_add>
    4058:	7820      	ldrb	r0, [r4, #0]
    405a:	2800      	cmp	r0, #0
    405c:	d1f4      	bne.n	4048 <nrf_fprintf_fmt+0xe>
    405e:	7b30      	ldrb	r0, [r6, #12]
    4060:	2800      	cmp	r0, #0
    4062:	d067      	beq.n	4134 <nrf_fprintf_fmt+0xfa>
    4064:	4630      	mov	r0, r6
    4066:	e8bd 41fc 	ldmia.w	sp!, {r2, r3, r4, r5, r6, r7, r8, lr}
    406a:	f7ff bfda 	b.w	4022 <nrf_fprintf_buffer_flush>
    406e:	2300      	movs	r3, #0
    4070:	2001      	movs	r0, #1
    4072:	7821      	ldrb	r1, [r4, #0]
    4074:	292b      	cmp	r1, #43	; 0x2b
    4076:	d01d      	beq.n	40b4 <nrf_fprintf_fmt+0x7a>
    4078:	292d      	cmp	r1, #45	; 0x2d
    407a:	d013      	beq.n	40a4 <nrf_fprintf_fmt+0x6a>
    407c:	2930      	cmp	r1, #48	; 0x30
    407e:	d015      	beq.n	40ac <nrf_fprintf_fmt+0x72>
    4080:	2000      	movs	r0, #0
    4082:	2800      	cmp	r0, #0
    4084:	d1f5      	bne.n	4072 <nrf_fprintf_fmt+0x38>
    4086:	2200      	movs	r2, #0
    4088:	292a      	cmp	r1, #42	; 0x2a
    408a:	d017      	beq.n	40bc <nrf_fprintf_fmt+0x82>
    408c:	7821      	ldrb	r1, [r4, #0]
    408e:	f1a1 0030 	sub.w	r0, r1, #48	; 0x30
    4092:	280a      	cmp	r0, #10
    4094:	d218      	bcs.n	40c8 <nrf_fprintf_fmt+0x8e>
    4096:	1c64      	adds	r4, r4, #1
    4098:	eb02 0082 	add.w	r0, r2, r2, lsl #2
    409c:	eb01 0240 	add.w	r2, r1, r0, lsl #1
    40a0:	3a30      	subs	r2, #48	; 0x30
    40a2:	e7f1      	b.n	4088 <nrf_fprintf_fmt+0x4e>
    40a4:	f043 0301 	orr.w	r3, r3, #1
    40a8:	1c64      	adds	r4, r4, #1
    40aa:	e7ea      	b.n	4082 <nrf_fprintf_fmt+0x48>
    40ac:	f043 0302 	orr.w	r3, r3, #2
    40b0:	1c64      	adds	r4, r4, #1
    40b2:	e7e6      	b.n	4082 <nrf_fprintf_fmt+0x48>
    40b4:	f043 0304 	orr.w	r3, r3, #4
    40b8:	1c64      	adds	r4, r4, #1
    40ba:	e7e2      	b.n	4082 <nrf_fprintf_fmt+0x48>
    40bc:	6828      	ldr	r0, [r5, #0]
    40be:	1d01      	adds	r1, r0, #4
    40c0:	6029      	str	r1, [r5, #0]
    40c2:	6800      	ldr	r0, [r0, #0]
    40c4:	4402      	add	r2, r0
    40c6:	1c64      	adds	r4, r4, #1
    40c8:	2000      	movs	r0, #0
    40ca:	7821      	ldrb	r1, [r4, #0]
    40cc:	292e      	cmp	r1, #46	; 0x2e
    40ce:	d10c      	bne.n	40ea <nrf_fprintf_fmt+0xb0>
    40d0:	1c64      	adds	r4, r4, #1
    40d2:	7821      	ldrb	r1, [r4, #0]
    40d4:	f1a1 0730 	sub.w	r7, r1, #48	; 0x30
    40d8:	2f0a      	cmp	r7, #10
    40da:	d206      	bcs.n	40ea <nrf_fprintf_fmt+0xb0>
    40dc:	1c64      	adds	r4, r4, #1
    40de:	eb00 0080 	add.w	r0, r0, r0, lsl #2
    40e2:	eb01 0040 	add.w	r0, r1, r0, lsl #1
    40e6:	3830      	subs	r0, #48	; 0x30
    40e8:	e7f3      	b.n	40d2 <nrf_fprintf_fmt+0x98>
    40ea:	296c      	cmp	r1, #108	; 0x6c
    40ec:	d00d      	beq.n	410a <nrf_fprintf_fmt+0xd0>
    40ee:	2968      	cmp	r1, #104	; 0x68
    40f0:	d00b      	beq.n	410a <nrf_fprintf_fmt+0xd0>
    40f2:	2969      	cmp	r1, #105	; 0x69
    40f4:	d01f      	beq.n	4136 <nrf_fprintf_fmt+0xfc>
    40f6:	dc0b      	bgt.n	4110 <nrf_fprintf_fmt+0xd6>
    40f8:	2925      	cmp	r1, #37	; 0x25
    40fa:	d05f      	beq.n	41bc <nrf_fprintf_fmt+0x182>
    40fc:	2958      	cmp	r1, #88	; 0x58
    40fe:	d032      	beq.n	4166 <nrf_fprintf_fmt+0x12c>
    4100:	2963      	cmp	r1, #99	; 0x63
    4102:	d00e      	beq.n	4122 <nrf_fprintf_fmt+0xe8>
    4104:	2964      	cmp	r1, #100	; 0x64
    4106:	d15d      	bne.n	41c4 <nrf_fprintf_fmt+0x18a>
    4108:	e015      	b.n	4136 <nrf_fprintf_fmt+0xfc>
    410a:	1c64      	adds	r4, r4, #1
    410c:	7821      	ldrb	r1, [r4, #0]
    410e:	e7ec      	b.n	40ea <nrf_fprintf_fmt+0xb0>
    4110:	2970      	cmp	r1, #112	; 0x70
    4112:	d03c      	beq.n	418e <nrf_fprintf_fmt+0x154>
    4114:	2973      	cmp	r1, #115	; 0x73
    4116:	d032      	beq.n	417e <nrf_fprintf_fmt+0x144>
    4118:	2975      	cmp	r1, #117	; 0x75
    411a:	d018      	beq.n	414e <nrf_fprintf_fmt+0x114>
    411c:	2978      	cmp	r1, #120	; 0x78
    411e:	d151      	bne.n	41c4 <nrf_fprintf_fmt+0x18a>
    4120:	e021      	b.n	4166 <nrf_fprintf_fmt+0x12c>
    4122:	6828      	ldr	r0, [r5, #0]
    4124:	1d01      	adds	r1, r0, #4
    4126:	6029      	str	r1, [r5, #0]
    4128:	7800      	ldrb	r0, [r0, #0]
    412a:	b2c1      	uxtb	r1, r0
    412c:	4630      	mov	r0, r6
    412e:	f7fd fee7 	bl	1f00 <buffer_add>
    4132:	e047      	b.n	41c4 <nrf_fprintf_fmt+0x18a>
    4134:	e048      	b.n	41c8 <nrf_fprintf_fmt+0x18e>
    4136:	6829      	ldr	r1, [r5, #0]
    4138:	1d0f      	adds	r7, r1, #4
    413a:	602f      	str	r7, [r5, #0]
    413c:	6809      	ldr	r1, [r1, #0]
    413e:	e9cd 2300 	strd	r2, r3, [sp]
    4142:	4603      	mov	r3, r0
    4144:	220a      	movs	r2, #10
    4146:	4630      	mov	r0, r6
    4148:	f7ff fab0 	bl	36ac <int_print>
    414c:	e03a      	b.n	41c4 <nrf_fprintf_fmt+0x18a>
    414e:	6829      	ldr	r1, [r5, #0]
    4150:	1d0f      	adds	r7, r1, #4
    4152:	602f      	str	r7, [r5, #0]
    4154:	6809      	ldr	r1, [r1, #0]
    4156:	e9cd 2300 	strd	r2, r3, [sp]
    415a:	4603      	mov	r3, r0
    415c:	220a      	movs	r2, #10
    415e:	4630      	mov	r0, r6
    4160:	f001 ff48 	bl	5ff4 <unsigned_print>
    4164:	e02e      	b.n	41c4 <nrf_fprintf_fmt+0x18a>
    4166:	6829      	ldr	r1, [r5, #0]
    4168:	1d0f      	adds	r7, r1, #4
    416a:	602f      	str	r7, [r5, #0]
    416c:	6809      	ldr	r1, [r1, #0]
    416e:	e9cd 2300 	strd	r2, r3, [sp]
    4172:	4603      	mov	r3, r0
    4174:	2210      	movs	r2, #16
    4176:	4630      	mov	r0, r6
    4178:	f001 ff3c 	bl	5ff4 <unsigned_print>
    417c:	e022      	b.n	41c4 <nrf_fprintf_fmt+0x18a>
    417e:	6828      	ldr	r0, [r5, #0]
    4180:	1d01      	adds	r1, r0, #4
    4182:	6029      	str	r1, [r5, #0]
    4184:	6801      	ldr	r1, [r0, #0]
    4186:	4630      	mov	r0, r6
    4188:	f001 fc55 	bl	5a36 <string_print>
    418c:	e01a      	b.n	41c4 <nrf_fprintf_fmt+0x18a>
    418e:	6828      	ldr	r0, [r5, #0]
    4190:	1d01      	adds	r1, r0, #4
    4192:	6029      	str	r1, [r5, #0]
    4194:	6807      	ldr	r7, [r0, #0]
    4196:	2130      	movs	r1, #48	; 0x30
    4198:	4630      	mov	r0, r6
    419a:	f7fd feb1 	bl	1f00 <buffer_add>
    419e:	2178      	movs	r1, #120	; 0x78
    41a0:	4630      	mov	r0, r6
    41a2:	f7fd fead 	bl	1f00 <buffer_add>
    41a6:	2108      	movs	r1, #8
    41a8:	2000      	movs	r0, #0
    41aa:	e9cd 1000 	strd	r1, r0, [sp]
    41ae:	460b      	mov	r3, r1
    41b0:	2210      	movs	r2, #16
    41b2:	4639      	mov	r1, r7
    41b4:	4630      	mov	r0, r6
    41b6:	f001 ff1d 	bl	5ff4 <unsigned_print>
    41ba:	e003      	b.n	41c4 <nrf_fprintf_fmt+0x18a>
    41bc:	2125      	movs	r1, #37	; 0x25
    41be:	4630      	mov	r0, r6
    41c0:	f7fd fe9e 	bl	1f00 <buffer_add>
    41c4:	1c64      	adds	r4, r4, #1
    41c6:	e747      	b.n	4058 <nrf_fprintf_fmt+0x1e>
    41c8:	e8bd 81fc 	ldmia.w	sp!, {r2, r3, r4, r5, r6, r7, r8, pc}

000041cc <nrf_gpio_cfg>:
    41cc:	e92d 41ff 	stmdb	sp!, {r0, r1, r2, r3, r4, r5, r6, r7, r8, lr}
    41d0:	460c      	mov	r4, r1
    41d2:	e9dd 780a 	ldrd	r7, r8, [sp, #40]	; 0x28
    41d6:	4615      	mov	r5, r2
    41d8:	461e      	mov	r6, r3
    41da:	4668      	mov	r0, sp
    41dc:	f000 f880 	bl	42e0 <nrf_gpio_pin_port_decode>
    41e0:	ea44 0145 	orr.w	r1, r4, r5, lsl #1
    41e4:	9a00      	ldr	r2, [sp, #0]
    41e6:	ea41 0186 	orr.w	r1, r1, r6, lsl #2
    41ea:	ea41 2107 	orr.w	r1, r1, r7, lsl #8
    41ee:	eb00 0082 	add.w	r0, r0, r2, lsl #2
    41f2:	ea41 4108 	orr.w	r1, r1, r8, lsl #16
    41f6:	f8c0 1700 	str.w	r1, [r0, #1792]	; 0x700
    41fa:	e8bd 81ff 	ldmia.w	sp!, {r0, r1, r2, r3, r4, r5, r6, r7, r8, pc}

000041fe <nrf_gpio_cfg>:
    41fe:	e92d 41ff 	stmdb	sp!, {r0, r1, r2, r3, r4, r5, r6, r7, r8, lr}
    4202:	460c      	mov	r4, r1
    4204:	e9dd 780a 	ldrd	r7, r8, [sp, #40]	; 0x28
    4208:	4615      	mov	r5, r2
    420a:	461e      	mov	r6, r3
    420c:	4668      	mov	r0, sp
    420e:	f000 f875 	bl	42fc <nrf_gpio_pin_port_decode>
    4212:	ea44 0145 	orr.w	r1, r4, r5, lsl #1
    4216:	9a00      	ldr	r2, [sp, #0]
    4218:	ea41 0186 	orr.w	r1, r1, r6, lsl #2
    421c:	ea41 2107 	orr.w	r1, r1, r7, lsl #8
    4220:	eb00 0082 	add.w	r0, r0, r2, lsl #2
    4224:	ea41 4108 	orr.w	r1, r1, r8, lsl #16
    4228:	f8c0 1700 	str.w	r1, [r0, #1792]	; 0x700
    422c:	e8bd 81ff 	ldmia.w	sp!, {r0, r1, r2, r3, r4, r5, r6, r7, r8, pc}

00004230 <nrf_gpio_cfg>:
    4230:	e92d 41ff 	stmdb	sp!, {r0, r1, r2, r3, r4, r5, r6, r7, r8, lr}
    4234:	460c      	mov	r4, r1
    4236:	e9dd 780a 	ldrd	r7, r8, [sp, #40]	; 0x28
    423a:	4615      	mov	r5, r2
    423c:	461e      	mov	r6, r3
    423e:	4668      	mov	r0, sp
    4240:	f000 f86a 	bl	4318 <nrf_gpio_pin_port_decode>
    4244:	ea44 0145 	orr.w	r1, r4, r5, lsl #1
    4248:	9a00      	ldr	r2, [sp, #0]
    424a:	ea41 0186 	orr.w	r1, r1, r6, lsl #2
    424e:	ea41 2107 	orr.w	r1, r1, r7, lsl #8
    4252:	eb00 0082 	add.w	r0, r0, r2, lsl #2
    4256:	ea41 4108 	orr.w	r1, r1, r8, lsl #16
    425a:	f8c0 1700 	str.w	r1, [r0, #1792]	; 0x700
    425e:	e8bd 81ff 	ldmia.w	sp!, {r0, r1, r2, r3, r4, r5, r6, r7, r8, pc}

00004262 <nrf_gpio_cfg_input>:
    4262:	b51c      	push	{r2, r3, r4, lr}
    4264:	2200      	movs	r2, #0
    4266:	460b      	mov	r3, r1
    4268:	9200      	str	r2, [sp, #0]
    426a:	4611      	mov	r1, r2
    426c:	9201      	str	r2, [sp, #4]
    426e:	f7ff ffc6 	bl	41fe <nrf_gpio_cfg>
    4272:	bd1c      	pop	{r2, r3, r4, pc}

00004274 <nrf_gpio_cfg_input>:
    4274:	b51c      	push	{r2, r3, r4, lr}
    4276:	2200      	movs	r2, #0
    4278:	460b      	mov	r3, r1
    427a:	9200      	str	r2, [sp, #0]
    427c:	4611      	mov	r1, r2
    427e:	9201      	str	r2, [sp, #4]
    4280:	f7ff ffd6 	bl	4230 <nrf_gpio_cfg>
    4284:	bd1c      	pop	{r2, r3, r4, pc}

00004286 <nrf_gpio_cfg_output>:
    4286:	b51c      	push	{r2, r3, r4, lr}
    4288:	2100      	movs	r1, #0
    428a:	9100      	str	r1, [sp, #0]
    428c:	460b      	mov	r3, r1
    428e:	2201      	movs	r2, #1
    4290:	9101      	str	r1, [sp, #4]
    4292:	4611      	mov	r1, r2
    4294:	f7ff ffb3 	bl	41fe <nrf_gpio_cfg>
    4298:	bd1c      	pop	{r2, r3, r4, pc}

0000429a <nrf_gpio_cfg_output>:
    429a:	b51c      	push	{r2, r3, r4, lr}
    429c:	2100      	movs	r1, #0
    429e:	9100      	str	r1, [sp, #0]
    42a0:	460b      	mov	r3, r1
    42a2:	2201      	movs	r2, #1
    42a4:	9101      	str	r1, [sp, #4]
    42a6:	4611      	mov	r1, r2
    42a8:	f7ff ffc2 	bl	4230 <nrf_gpio_cfg>
    42ac:	bd1c      	pop	{r2, r3, r4, pc}

000042ae <nrf_gpio_pin_clear>:
    42ae:	b501      	push	{r0, lr}
    42b0:	4668      	mov	r0, sp
    42b2:	f000 f807 	bl	42c4 <nrf_gpio_pin_port_decode>
    42b6:	9a00      	ldr	r2, [sp, #0]
    42b8:	2101      	movs	r1, #1
    42ba:	4091      	lsls	r1, r2
    42bc:	f8c0 150c 	str.w	r1, [r0, #1292]	; 0x50c
    42c0:	bd08      	pop	{r3, pc}
	...

000042c4 <nrf_gpio_pin_port_decode>:
    42c4:	6801      	ldr	r1, [r0, #0]
    42c6:	2920      	cmp	r1, #32
    42c8:	d202      	bcs.n	42d0 <nrf_gpio_pin_port_decode+0xc>
    42ca:	f04f 40a0 	mov.w	r0, #1342177280	; 0x50000000
    42ce:	4770      	bx	lr
    42d0:	f001 011f 	and.w	r1, r1, #31
    42d4:	6001      	str	r1, [r0, #0]
    42d6:	4801      	ldr	r0, [pc, #4]	; (42dc <nrf_gpio_pin_port_decode+0x18>)
    42d8:	4770      	bx	lr
    42da:	0000      	.short	0x0000
    42dc:	50000300 	.word	0x50000300

000042e0 <nrf_gpio_pin_port_decode>:
    42e0:	6801      	ldr	r1, [r0, #0]
    42e2:	2920      	cmp	r1, #32
    42e4:	d202      	bcs.n	42ec <nrf_gpio_pin_port_decode+0xc>
    42e6:	f04f 40a0 	mov.w	r0, #1342177280	; 0x50000000
    42ea:	4770      	bx	lr
    42ec:	f001 011f 	and.w	r1, r1, #31
    42f0:	6001      	str	r1, [r0, #0]
    42f2:	4801      	ldr	r0, [pc, #4]	; (42f8 <nrf_gpio_pin_port_decode+0x18>)
    42f4:	4770      	bx	lr
    42f6:	0000      	.short	0x0000
    42f8:	50000300 	.word	0x50000300

000042fc <nrf_gpio_pin_port_decode>:
    42fc:	6801      	ldr	r1, [r0, #0]
    42fe:	2920      	cmp	r1, #32
    4300:	d202      	bcs.n	4308 <nrf_gpio_pin_port_decode+0xc>
    4302:	f04f 40a0 	mov.w	r0, #1342177280	; 0x50000000
    4306:	4770      	bx	lr
    4308:	f001 011f 	and.w	r1, r1, #31
    430c:	6001      	str	r1, [r0, #0]
    430e:	4801      	ldr	r0, [pc, #4]	; (4314 <nrf_gpio_pin_port_decode+0x18>)
    4310:	4770      	bx	lr
    4312:	0000      	.short	0x0000
    4314:	50000300 	.word	0x50000300

00004318 <nrf_gpio_pin_port_decode>:
    4318:	6801      	ldr	r1, [r0, #0]
    431a:	2920      	cmp	r1, #32
    431c:	d202      	bcs.n	4324 <nrf_gpio_pin_port_decode+0xc>
    431e:	f04f 40a0 	mov.w	r0, #1342177280	; 0x50000000
    4322:	4770      	bx	lr
    4324:	f001 011f 	and.w	r1, r1, #31
    4328:	6001      	str	r1, [r0, #0]
    432a:	4801      	ldr	r0, [pc, #4]	; (4330 <nrf_gpio_pin_port_decode+0x18>)
    432c:	4770      	bx	lr
    432e:	0000      	.short	0x0000
    4330:	50000300 	.word	0x50000300

00004334 <nrf_gpio_pin_read>:
    4334:	b501      	push	{r0, lr}
    4336:	4668      	mov	r0, sp
    4338:	f7ff ffc4 	bl	42c4 <nrf_gpio_pin_port_decode>
    433c:	f8d0 0510 	ldr.w	r0, [r0, #1296]	; 0x510
    4340:	9900      	ldr	r1, [sp, #0]
    4342:	40c8      	lsrs	r0, r1
    4344:	f000 0001 	and.w	r0, r0, #1
    4348:	bd08      	pop	{r3, pc}

0000434a <nrf_gpio_pin_set>:
    434a:	b501      	push	{r0, lr}
    434c:	4668      	mov	r0, sp
    434e:	f7ff ffb9 	bl	42c4 <nrf_gpio_pin_port_decode>
    4352:	9a00      	ldr	r2, [sp, #0]
    4354:	2101      	movs	r1, #1
    4356:	4091      	lsls	r1, r2
    4358:	f8c0 1508 	str.w	r1, [r0, #1288]	; 0x508
    435c:	bd08      	pop	{r3, pc}

0000435e <nrf_gpio_pin_set>:
    435e:	b501      	push	{r0, lr}
    4360:	4668      	mov	r0, sp
    4362:	f7ff ffcb 	bl	42fc <nrf_gpio_pin_port_decode>
    4366:	9a00      	ldr	r2, [sp, #0]
    4368:	2101      	movs	r1, #1
    436a:	4091      	lsls	r1, r2
    436c:	f8c0 1508 	str.w	r1, [r0, #1288]	; 0x508
    4370:	bd08      	pop	{r3, pc}

00004372 <nrf_gpio_pin_set>:
    4372:	b501      	push	{r0, lr}
    4374:	4668      	mov	r0, sp
    4376:	f7ff ffcf 	bl	4318 <nrf_gpio_pin_port_decode>
    437a:	9a00      	ldr	r2, [sp, #0]
    437c:	2101      	movs	r1, #1
    437e:	4091      	lsls	r1, r2
    4380:	f8c0 1508 	str.w	r1, [r0, #1288]	; 0x508
    4384:	bd08      	pop	{r3, pc}

00004386 <nrf_gpio_pin_write>:
    4386:	b538      	push	{r3, r4, r5, lr}
    4388:	2401      	movs	r4, #1
    438a:	2900      	cmp	r1, #0
    438c:	d008      	beq.n	43a0 <nrf_gpio_pin_write+0x1a>
    438e:	9000      	str	r0, [sp, #0]
    4390:	4668      	mov	r0, sp
    4392:	f7ff ffa5 	bl	42e0 <nrf_gpio_pin_port_decode>
    4396:	9900      	ldr	r1, [sp, #0]
    4398:	408c      	lsls	r4, r1
    439a:	f8c0 4508 	str.w	r4, [r0, #1288]	; 0x508
    439e:	bd38      	pop	{r3, r4, r5, pc}
    43a0:	9000      	str	r0, [sp, #0]
    43a2:	4668      	mov	r0, sp
    43a4:	f7ff ff9c 	bl	42e0 <nrf_gpio_pin_port_decode>
    43a8:	9900      	ldr	r1, [sp, #0]
    43aa:	408c      	lsls	r4, r1
    43ac:	f8c0 450c 	str.w	r4, [r0, #1292]	; 0x50c
    43b0:	bd38      	pop	{r3, r4, r5, pc}
	...

000043b4 <nrf_log_backend_add>:
    43b4:	b510      	push	{r4, lr}
    43b6:	4604      	mov	r4, r0
    43b8:	f7fd fcd8 	bl	1d6c <backend_id_assign>
    43bc:	1c41      	adds	r1, r0, #1
    43be:	d00d      	beq.n	43dc <nrf_log_backend_add+0x28>
    43c0:	68e1      	ldr	r1, [r4, #12]
    43c2:	7108      	strb	r0, [r1, #4]
    43c4:	4a09      	ldr	r2, [pc, #36]	; (43ec <nrf_log_backend_add+0x38>)
    43c6:	f8d2 1410 	ldr.w	r1, [r2, #1040]	; 0x410
    43ca:	b141      	cbz	r1, 43de <nrf_log_backend_add+0x2a>
    43cc:	68c9      	ldr	r1, [r1, #12]
    43ce:	68e3      	ldr	r3, [r4, #12]
    43d0:	6809      	ldr	r1, [r1, #0]
    43d2:	6019      	str	r1, [r3, #0]
    43d4:	f8d2 1410 	ldr.w	r1, [r2, #1040]	; 0x410
    43d8:	68c9      	ldr	r1, [r1, #12]
    43da:	600c      	str	r4, [r1, #0]
    43dc:	bd10      	pop	{r4, pc}
    43de:	f8c2 4410 	str.w	r4, [r2, #1040]	; 0x410
    43e2:	68e2      	ldr	r2, [r4, #12]
    43e4:	2100      	movs	r1, #0
    43e6:	6011      	str	r1, [r2, #0]
    43e8:	bd10      	pop	{r4, pc}
    43ea:	0000      	.short	0x0000
    43ec:	20000810 	.word	0x20000810

000043f0 <nrf_log_backend_rtt_flush>:
    43f0:	4770      	bx	lr

000043f2 <nrf_log_backend_rtt_init>:
    43f2:	f7fc bb47 	b.w	a84 <SEGGER_RTT_Init>

000043f6 <nrf_log_backend_rtt_panic_set>:
    43f6:	4770      	bx	lr

000043f8 <nrf_log_backend_rtt_put>:
    43f8:	b508      	push	{r3, lr}
    43fa:	4a03      	ldr	r2, [pc, #12]	; (4408 <nrf_log_backend_rtt_put+0x10>)
    43fc:	9200      	str	r2, [sp, #0]
    43fe:	2340      	movs	r3, #64	; 0x40
    4400:	4a02      	ldr	r2, [pc, #8]	; (440c <nrf_log_backend_rtt_put+0x14>)
    4402:	f000 f805 	bl	4410 <nrf_log_backend_serial_put>
    4406:	bd08      	pop	{r3, pc}
    4408:	000054b9 	.word	0x000054b9
    440c:	20000678 	.word	0x20000678

00004410 <nrf_log_backend_serial_put>:
    4410:	b5f0      	push	{r4, r5, r6, r7, lr}
    4412:	b093      	sub	sp, #76	; 0x4c
    4414:	460f      	mov	r7, r1
    4416:	9e18      	ldr	r6, [sp, #96]	; 0x60
    4418:	4614      	mov	r4, r2
    441a:	461d      	mov	r5, r3
    441c:	4638      	mov	r0, r7
    441e:	f000 fb04 	bl	4a2a <nrf_memobj_get>
    4422:	2118      	movs	r1, #24
    4424:	a80d      	add	r0, sp, #52	; 0x34
    4426:	f7fc f870 	bl	50a <__aeabi_memclr>
    442a:	940d      	str	r4, [sp, #52]	; 0x34
    442c:	950e      	str	r5, [sp, #56]	; 0x38
    442e:	9612      	str	r6, [sp, #72]	; 0x48
    4430:	2300      	movs	r3, #0
    4432:	2208      	movs	r2, #8
    4434:	a907      	add	r1, sp, #28
    4436:	4638      	mov	r0, r7
    4438:	f000 fb0c 	bl	4a54 <nrf_memobj_read>
    443c:	2608      	movs	r6, #8
    443e:	9809      	ldr	r0, [sp, #36]	; 0x24
    4440:	900a      	str	r0, [sp, #40]	; 0x28
    4442:	f8bd 0020 	ldrh.w	r0, [sp, #32]
    4446:	f8ad 002c 	strh.w	r0, [sp, #44]	; 0x2c
    444a:	f8bd 0022 	ldrh.w	r0, [sp, #34]	; 0x22
    444e:	f8ad 002e 	strh.w	r0, [sp, #46]	; 0x2e
    4452:	2000      	movs	r0, #0
    4454:	f88d 0031 	strb.w	r0, [sp, #49]	; 0x31
    4458:	9807      	ldr	r0, [sp, #28]
    445a:	f000 0003 	and.w	r0, r0, #3
    445e:	2801      	cmp	r0, #1
    4460:	d002      	beq.n	4468 <nrf_log_backend_serial_put+0x58>
    4462:	2802      	cmp	r0, #2
    4464:	d019      	beq.n	449a <nrf_log_backend_serial_put+0x8a>
    4466:	e034      	b.n	44d2 <nrf_log_backend_serial_put+0xc2>
    4468:	9807      	ldr	r0, [sp, #28]
    446a:	0a85      	lsrs	r5, r0, #10
    446c:	9807      	ldr	r0, [sp, #28]
    446e:	f3c0 00c2 	ubfx	r0, r0, #3, #3
    4472:	f88d 0030 	strb.w	r0, [sp, #48]	; 0x30
    4476:	9807      	ldr	r0, [sp, #28]
    4478:	f3c0 1483 	ubfx	r4, r0, #6, #4
    447c:	00a2      	lsls	r2, r4, #2
    447e:	4633      	mov	r3, r6
    4480:	a901      	add	r1, sp, #4
    4482:	4638      	mov	r0, r7
    4484:	f000 fae6 	bl	4a54 <nrf_memobj_read>
    4488:	a80d      	add	r0, sp, #52	; 0x34
    448a:	9000      	str	r0, [sp, #0]
    448c:	ab0a      	add	r3, sp, #40	; 0x28
    448e:	4622      	mov	r2, r4
    4490:	a901      	add	r1, sp, #4
    4492:	4628      	mov	r0, r5
    4494:	f000 fa22 	bl	48dc <nrf_log_std_entry_process>
    4498:	e01b      	b.n	44d2 <nrf_log_backend_serial_put+0xc2>
    449a:	9807      	ldr	r0, [sp, #28]
    449c:	0d84      	lsrs	r4, r0, #22
    449e:	9807      	ldr	r0, [sp, #28]
    44a0:	f3c0 00c2 	ubfx	r0, r0, #3, #3
    44a4:	f88d 0030 	strb.w	r0, [sp, #48]	; 0x30
    44a8:	2c08      	cmp	r4, #8
    44aa:	d201      	bcs.n	44b0 <nrf_log_backend_serial_put+0xa0>
    44ac:	4625      	mov	r5, r4
    44ae:	e000      	b.n	44b2 <nrf_log_backend_serial_put+0xa2>
    44b0:	2508      	movs	r5, #8
    44b2:	4633      	mov	r3, r6
    44b4:	462a      	mov	r2, r5
    44b6:	a905      	add	r1, sp, #20
    44b8:	4638      	mov	r0, r7
    44ba:	f000 facb 	bl	4a54 <nrf_memobj_read>
    44be:	442e      	add	r6, r5
    44c0:	1b64      	subs	r4, r4, r5
    44c2:	ab0d      	add	r3, sp, #52	; 0x34
    44c4:	aa0a      	add	r2, sp, #40	; 0x28
    44c6:	4629      	mov	r1, r5
    44c8:	a805      	add	r0, sp, #20
    44ca:	f000 f963 	bl	4794 <nrf_log_hexdump_entry_process>
    44ce:	2c00      	cmp	r4, #0
    44d0:	d1ea      	bne.n	44a8 <nrf_log_backend_serial_put+0x98>
    44d2:	4638      	mov	r0, r7
    44d4:	f000 faaf 	bl	4a36 <nrf_memobj_put>
    44d8:	b013      	add	sp, #76	; 0x4c
    44da:	bdf0      	pop	{r4, r5, r6, r7, pc}

000044dc <nrf_log_color_id_get>:
    44dc:	4a0a      	ldr	r2, [pc, #40]	; (4508 <nrf_log_color_id_get+0x2c>)
    44de:	eb02 00c0 	add.w	r0, r2, r0, lsl #3
    44e2:	2901      	cmp	r1, #1
    44e4:	d007      	beq.n	44f6 <nrf_log_color_id_get+0x1a>
    44e6:	2902      	cmp	r1, #2
    44e8:	d007      	beq.n	44fa <nrf_log_color_id_get+0x1e>
    44ea:	2903      	cmp	r1, #3
    44ec:	d007      	beq.n	44fe <nrf_log_color_id_get+0x22>
    44ee:	2904      	cmp	r1, #4
    44f0:	d007      	beq.n	4502 <nrf_log_color_id_get+0x26>
    44f2:	2000      	movs	r0, #0
    44f4:	4770      	bx	lr
    44f6:	2002      	movs	r0, #2
    44f8:	4770      	bx	lr
    44fa:	2004      	movs	r0, #4
    44fc:	4770      	bx	lr
    44fe:	7900      	ldrb	r0, [r0, #4]
    4500:	4770      	bx	lr
    4502:	7940      	ldrb	r0, [r0, #5]
    4504:	4770      	bx	lr
    4506:	0000      	.short	0x0000
    4508:	00000000 	.word	0x00000000

0000450c <nrf_log_default_backends_init>:
    450c:	b510      	push	{r4, lr}
    450e:	f7ff ff70 	bl	43f2 <nrf_log_backend_rtt_init>
    4512:	2104      	movs	r1, #4
    4514:	4803      	ldr	r0, [pc, #12]	; (4524 <nrf_log_default_backends_init+0x18>)
    4516:	f7ff ff4d 	bl	43b4 <nrf_log_backend_add>
    451a:	4902      	ldr	r1, [pc, #8]	; (4524 <nrf_log_default_backends_init+0x18>)
    451c:	2001      	movs	r0, #1
    451e:	68c9      	ldr	r1, [r1, #12]
    4520:	7148      	strb	r0, [r1, #5]
    4522:	bd10      	pop	{r4, pc}
    4524:	00006488 	.word	0x00006488

00004528 <nrf_log_frontend_dequeue>:
    4528:	e92d 47ff 	stmdb	sp!, {r0, r1, r2, r3, r4, r5, r6, r7, r8, r9, sl, lr}
    452c:	f7fd fd00 	bl	1f30 <buffer_is_empty>
    4530:	b118      	cbz	r0, 453a <nrf_log_frontend_dequeue+0x12>
    4532:	2000      	movs	r0, #0
    4534:	b004      	add	sp, #16
    4536:	e8bd 87f0 	ldmia.w	sp!, {r4, r5, r6, r7, r8, r9, sl, pc}
    453a:	4f87      	ldr	r7, [pc, #540]	; (4758 <nrf_log_frontend_dequeue+0x230>)
    453c:	2000      	movs	r0, #0
    453e:	f8c7 0418 	str.w	r0, [r7, #1048]	; 0x418
    4542:	f3bf 8f4f 	dsb	sy
    4546:	6878      	ldr	r0, [r7, #4]
    4548:	9003      	str	r0, [sp, #12]
    454a:	68bc      	ldr	r4, [r7, #8]
    454c:	4020      	ands	r0, r4
    454e:	eb07 0080 	add.w	r0, r7, r0, lsl #2
    4552:	300c      	adds	r0, #12
    4554:	2600      	movs	r6, #0
    4556:	46b0      	mov	r8, r6
    4558:	a903      	add	r1, sp, #12
    455a:	f7ff f977 	bl	384c <invalid_packets_omit>
    455e:	b110      	cbz	r0, 4566 <nrf_log_frontend_dequeue+0x3e>
    4560:	f8d7 0418 	ldr.w	r0, [r7, #1048]	; 0x418
    4564:	b1a8      	cbz	r0, 4592 <nrf_log_frontend_dequeue+0x6a>
    4566:	2000      	movs	r0, #0
    4568:	466a      	mov	r2, sp
    456a:	9903      	ldr	r1, [sp, #12]
    456c:	1c4b      	adds	r3, r1, #1
    456e:	4021      	ands	r1, r4
    4570:	eb07 0181 	add.w	r1, r7, r1, lsl #2
    4574:	9303      	str	r3, [sp, #12]
    4576:	68c9      	ldr	r1, [r1, #12]
    4578:	f842 1020 	str.w	r1, [r2, r0, lsl #2]
    457c:	1c40      	adds	r0, r0, #1
    457e:	2802      	cmp	r0, #2
    4580:	d3f3      	bcc.n	456a <nrf_log_frontend_dequeue+0x42>
    4582:	9800      	ldr	r0, [sp, #0]
    4584:	f000 0003 	and.w	r0, r0, #3
    4588:	2802      	cmp	r0, #2
    458a:	d00f      	beq.n	45ac <nrf_log_frontend_dequeue+0x84>
    458c:	2801      	cmp	r0, #1
    458e:	d06c      	beq.n	466a <nrf_log_frontend_dequeue+0x142>
    4590:	e0a0      	b.n	46d4 <nrf_log_frontend_dequeue+0x1ac>
    4592:	6839      	ldr	r1, [r7, #0]
    4594:	9803      	ldr	r0, [sp, #12]
    4596:	4281      	cmp	r1, r0
    4598:	d803      	bhi.n	45a2 <nrf_log_frontend_dequeue+0x7a>
    459a:	6838      	ldr	r0, [r7, #0]
    459c:	6078      	str	r0, [r7, #4]
    459e:	2000      	movs	r0, #0
    45a0:	e7c8      	b.n	4534 <nrf_log_frontend_dequeue+0xc>
    45a2:	4020      	ands	r0, r4
    45a4:	eb07 0080 	add.w	r0, r7, r0, lsl #2
    45a8:	300c      	adds	r0, #12
    45aa:	e7d5      	b.n	4558 <nrf_log_frontend_dequeue+0x30>
    45ac:	9800      	ldr	r0, [sp, #0]
    45ae:	ea4f 5990 	mov.w	r9, r0, lsr #22
    45b2:	9800      	ldr	r0, [sp, #0]
    45b4:	2150      	movs	r1, #80	; 0x50
    45b6:	ebb1 5f90 	cmp.w	r1, r0, lsr #22
    45ba:	d901      	bls.n	45c0 <nrf_log_frontend_dequeue+0x98>
    45bc:	464d      	mov	r5, r9
    45be:	e000      	b.n	45c2 <nrf_log_frontend_dequeue+0x9a>
    45c0:	2550      	movs	r5, #80	; 0x50
    45c2:	9800      	ldr	r0, [sp, #0]
    45c4:	f365 509f 	bfi	r0, r5, #22, #10
    45c8:	9000      	str	r0, [sp, #0]
    45ca:	f105 0108 	add.w	r1, r5, #8
    45ce:	4863      	ldr	r0, [pc, #396]	; (475c <nrf_log_frontend_dequeue+0x234>)
    45d0:	f000 f9df 	bl	4992 <nrf_memobj_alloc>
    45d4:	4606      	mov	r6, r0
    45d6:	0030      	movs	r0, r6
    45d8:	d07c      	beq.n	46d4 <nrf_log_frontend_dequeue+0x1ac>
    45da:	f000 fa26 	bl	4a2a <nrf_memobj_get>
    45de:	4643      	mov	r3, r8
    45e0:	2208      	movs	r2, #8
    45e2:	4669      	mov	r1, sp
    45e4:	4630      	mov	r0, r6
    45e6:	f000 fa3d 	bl	4a64 <nrf_memobj_write>
    45ea:	f108 0808 	add.w	r8, r8, #8
    45ee:	9903      	ldr	r1, [sp, #12]
    45f0:	4021      	ands	r1, r4
    45f2:	1a60      	subs	r0, r4, r1
    45f4:	1c40      	adds	r0, r0, #1
    45f6:	0080      	lsls	r0, r0, #2
    45f8:	4285      	cmp	r5, r0
    45fa:	d927      	bls.n	464c <nrf_log_frontend_dequeue+0x124>
    45fc:	4c56      	ldr	r4, [pc, #344]	; (4758 <nrf_log_frontend_dequeue+0x230>)
    45fe:	340c      	adds	r4, #12
    4600:	2800      	cmp	r0, #0
    4602:	d004      	beq.n	460e <nrf_log_frontend_dequeue+0xe6>
    4604:	eb07 0181 	add.w	r1, r7, r1, lsl #2
    4608:	f101 010c 	add.w	r1, r1, #12
    460c:	e000      	b.n	4610 <nrf_log_frontend_dequeue+0xe8>
    460e:	4621      	mov	r1, r4
    4610:	d001      	beq.n	4616 <nrf_log_frontend_dequeue+0xee>
    4612:	4602      	mov	r2, r0
    4614:	e000      	b.n	4618 <nrf_log_frontend_dequeue+0xf0>
    4616:	462a      	mov	r2, r5
    4618:	f002 0aff 	and.w	sl, r2, #255	; 0xff
    461c:	d101      	bne.n	4622 <nrf_log_frontend_dequeue+0xfa>
    461e:	f04f 0400 	mov.w	r4, #0
    4622:	d002      	beq.n	462a <nrf_log_frontend_dequeue+0x102>
    4624:	eba5 0000 	sub.w	r0, r5, r0
    4628:	e001      	b.n	462e <nrf_log_frontend_dequeue+0x106>
    462a:	f04f 0000 	mov.w	r0, #0
    462e:	b2c5      	uxtb	r5, r0
    4630:	4643      	mov	r3, r8
    4632:	4652      	mov	r2, sl
    4634:	4630      	mov	r0, r6
    4636:	f000 fa15 	bl	4a64 <nrf_memobj_write>
    463a:	eb08 030a 	add.w	r3, r8, sl
    463e:	b16c      	cbz	r4, 465c <nrf_log_frontend_dequeue+0x134>
    4640:	462a      	mov	r2, r5
    4642:	4621      	mov	r1, r4
    4644:	4630      	mov	r0, r6
    4646:	f000 fa0d 	bl	4a64 <nrf_memobj_write>
    464a:	e007      	b.n	465c <nrf_log_frontend_dequeue+0x134>
    464c:	eb07 0181 	add.w	r1, r7, r1, lsl #2
    4650:	310c      	adds	r1, #12
    4652:	4643      	mov	r3, r8
    4654:	462a      	mov	r2, r5
    4656:	4630      	mov	r0, r6
    4658:	f000 fa04 	bl	4a64 <nrf_memobj_write>
    465c:	9803      	ldr	r0, [sp, #12]
    465e:	f109 0903 	add.w	r9, r9, #3
    4662:	eb00 0099 	add.w	r0, r0, r9, lsr #2
    4666:	9003      	str	r0, [sp, #12]
    4668:	e034      	b.n	46d4 <nrf_log_frontend_dequeue+0x1ac>
    466a:	9800      	ldr	r0, [sp, #0]
    466c:	f3c0 1083 	ubfx	r0, r0, #6, #4
    4670:	2806      	cmp	r0, #6
    4672:	d300      	bcc.n	4676 <nrf_log_frontend_dequeue+0x14e>
    4674:	2006      	movs	r0, #6
    4676:	9900      	ldr	r1, [sp, #0]
    4678:	f360 1189 	bfi	r1, r0, #6, #4
    467c:	9100      	str	r1, [sp, #0]
    467e:	9800      	ldr	r0, [sp, #0]
    4680:	f3c0 1083 	ubfx	r0, r0, #6, #4
    4684:	1c80      	adds	r0, r0, #2
    4686:	0081      	lsls	r1, r0, #2
    4688:	4834      	ldr	r0, [pc, #208]	; (475c <nrf_log_frontend_dequeue+0x234>)
    468a:	f000 f982 	bl	4992 <nrf_memobj_alloc>
    468e:	4606      	mov	r6, r0
    4690:	0030      	movs	r0, r6
    4692:	d01f      	beq.n	46d4 <nrf_log_frontend_dequeue+0x1ac>
    4694:	f000 f9c9 	bl	4a2a <nrf_memobj_get>
    4698:	4643      	mov	r3, r8
    469a:	2208      	movs	r2, #8
    469c:	4669      	mov	r1, sp
    469e:	4630      	mov	r0, r6
    46a0:	f000 f9e0 	bl	4a64 <nrf_memobj_write>
    46a4:	f108 0808 	add.w	r8, r8, #8
    46a8:	2500      	movs	r5, #0
    46aa:	e00e      	b.n	46ca <nrf_log_frontend_dequeue+0x1a2>
    46ac:	9803      	ldr	r0, [sp, #12]
    46ae:	4643      	mov	r3, r8
    46b0:	1c41      	adds	r1, r0, #1
    46b2:	4020      	ands	r0, r4
    46b4:	9103      	str	r1, [sp, #12]
    46b6:	eb07 0180 	add.w	r1, r7, r0, lsl #2
    46ba:	310c      	adds	r1, #12
    46bc:	2204      	movs	r2, #4
    46be:	4630      	mov	r0, r6
    46c0:	f000 f9d0 	bl	4a64 <nrf_memobj_write>
    46c4:	f108 0804 	add.w	r8, r8, #4
    46c8:	1c6d      	adds	r5, r5, #1
    46ca:	9800      	ldr	r0, [sp, #0]
    46cc:	f3c0 1083 	ubfx	r0, r0, #6, #4
    46d0:	42a8      	cmp	r0, r5
    46d2:	d8eb      	bhi.n	46ac <nrf_log_frontend_dequeue+0x184>
    46d4:	b336      	cbz	r6, 4724 <nrf_log_frontend_dequeue+0x1fc>
    46d6:	f8d7 4410 	ldr.w	r4, [r7, #1040]	; 0x410
    46da:	f8d7 0418 	ldr.w	r0, [r7, #1048]	; 0x418
    46de:	b180      	cbz	r0, 4702 <nrf_log_frontend_dequeue+0x1da>
    46e0:	4630      	mov	r0, r6
    46e2:	f000 f9a8 	bl	4a36 <nrf_memobj_put>
    46e6:	e032      	b.n	474e <nrf_log_frontend_dequeue+0x226>
    46e8:	2000      	movs	r0, #0
    46ea:	68e1      	ldr	r1, [r4, #12]
    46ec:	7949      	ldrb	r1, [r1, #5]
    46ee:	b101      	cbz	r1, 46f2 <nrf_log_frontend_dequeue+0x1ca>
    46f0:	2001      	movs	r0, #1
    46f2:	b120      	cbz	r0, 46fe <nrf_log_frontend_dequeue+0x1d6>
    46f4:	4620      	mov	r0, r4
    46f6:	4631      	mov	r1, r6
    46f8:	6802      	ldr	r2, [r0, #0]
    46fa:	6812      	ldr	r2, [r2, #0]
    46fc:	4790      	blx	r2
    46fe:	68e0      	ldr	r0, [r4, #12]
    4700:	6804      	ldr	r4, [r0, #0]
    4702:	2c00      	cmp	r4, #0
    4704:	d1f0      	bne.n	46e8 <nrf_log_frontend_dequeue+0x1c0>
    4706:	4630      	mov	r0, r6
    4708:	f000 f995 	bl	4a36 <nrf_memobj_put>
    470c:	2000      	movs	r0, #0
    470e:	f7fd faa1 	bl	1c54 <app_util_critical_region_enter>
    4712:	f8d7 0418 	ldr.w	r0, [r7, #1048]	; 0x418
    4716:	b908      	cbnz	r0, 471c <nrf_log_frontend_dequeue+0x1f4>
    4718:	9803      	ldr	r0, [sp, #12]
    471a:	6078      	str	r0, [r7, #4]
    471c:	2000      	movs	r0, #0
    471e:	f7fd fa9b 	bl	1c58 <app_util_critical_region_exit>
    4722:	e014      	b.n	474e <nrf_log_frontend_dequeue+0x226>
    4724:	f8d7 4410 	ldr.w	r4, [r7, #1040]	; 0x410
    4728:	e005      	b.n	4736 <nrf_log_frontend_dequeue+0x20e>
    472a:	4620      	mov	r0, r4
    472c:	6801      	ldr	r1, [r0, #0]
    472e:	6889      	ldr	r1, [r1, #8]
    4730:	4788      	blx	r1
    4732:	68e0      	ldr	r0, [r4, #12]
    4734:	6804      	ldr	r4, [r0, #0]
    4736:	2c00      	cmp	r4, #0
    4738:	d1f7      	bne.n	472a <nrf_log_frontend_dequeue+0x202>
    473a:	4809      	ldr	r0, [pc, #36]	; (4760 <nrf_log_frontend_dequeue+0x238>)
    473c:	4909      	ldr	r1, [pc, #36]	; (4764 <nrf_log_frontend_dequeue+0x23c>)
    473e:	1a40      	subs	r0, r0, r1
    4740:	08c0      	lsrs	r0, r0, #3
    4742:	2102      	movs	r1, #2
    4744:	eb01 4000 	add.w	r0, r1, r0, lsl #16
    4748:	a107      	add	r1, pc, #28	; (adr r1, 4768 <nrf_log_frontend_dequeue+0x240>)
    474a:	f000 f817 	bl	477c <nrf_log_frontend_std_0>
    474e:	f7fd fbef 	bl	1f30 <buffer_is_empty>
    4752:	f080 0001 	eor.w	r0, r0, #1
    4756:	e6ed      	b.n	4534 <nrf_log_frontend_dequeue+0xc>
    4758:	20000810 	.word	0x20000810
    475c:	000064b8 	.word	0x000064b8
    4760:	000064b0 	.word	0x000064b0
    4764:	00000000 	.word	0x00000000
    4768:	6b636142 	.word	0x6b636142
    476c:	73646e65 	.word	0x73646e65
    4770:	756c6620 	.word	0x756c6620
    4774:	64656873 	.word	0x64656873
    4778:	00000000 	.word	0x00000000

0000477c <nrf_log_frontend_std_0>:
    477c:	2300      	movs	r3, #0
    477e:	461a      	mov	r2, r3
    4780:	f001 b906 	b.w	5990 <std_n>

00004784 <nrf_log_frontend_std_1>:
    4784:	b508      	push	{r3, lr}
    4786:	9200      	str	r2, [sp, #0]
    4788:	2301      	movs	r3, #1
    478a:	466a      	mov	r2, sp
    478c:	f001 f900 	bl	5990 <std_n>
    4790:	bd08      	pop	{r3, pc}
	...

00004794 <nrf_log_hexdump_entry_process>:
    4794:	e92d 47f0 	stmdb	sp!, {r4, r5, r6, r7, r8, r9, sl, lr}
    4798:	4607      	mov	r7, r0
    479a:	460e      	mov	r6, r1
    479c:	4692      	mov	sl, r2
    479e:	4698      	mov	r8, r3
    47a0:	2e08      	cmp	r6, #8
    47a2:	d83e      	bhi.n	4822 <nrf_log_hexdump_entry_process+0x8e>
    47a4:	f898 900c 	ldrb.w	r9, [r8, #12]
    47a8:	2000      	movs	r0, #0
    47aa:	f888 000c 	strb.w	r0, [r8, #12]
    47ae:	4641      	mov	r1, r8
    47b0:	4650      	mov	r0, sl
    47b2:	f000 fc1d 	bl	4ff0 <prefix_process>
    47b6:	2400      	movs	r4, #0
    47b8:	42b4      	cmp	r4, r6
    47ba:	d205      	bcs.n	47c8 <nrf_log_hexdump_entry_process+0x34>
    47bc:	5d3a      	ldrb	r2, [r7, r4]
    47be:	a11a      	add	r1, pc, #104	; (adr r1, 4828 <nrf_log_hexdump_entry_process+0x94>)
    47c0:	4640      	mov	r0, r8
    47c2:	f7ff fc21 	bl	4008 <nrf_fprintf>
    47c6:	e003      	b.n	47d0 <nrf_log_hexdump_entry_process+0x3c>
    47c8:	a119      	add	r1, pc, #100	; (adr r1, 4830 <nrf_log_hexdump_entry_process+0x9c>)
    47ca:	4640      	mov	r0, r8
    47cc:	f7ff fc1c 	bl	4008 <nrf_fprintf>
    47d0:	1c64      	adds	r4, r4, #1
    47d2:	2c08      	cmp	r4, #8
    47d4:	d3f0      	bcc.n	47b8 <nrf_log_hexdump_entry_process+0x24>
    47d6:	a117      	add	r1, pc, #92	; (adr r1, 4834 <nrf_log_hexdump_entry_process+0xa0>)
    47d8:	4640      	mov	r0, r8
    47da:	f7ff fc15 	bl	4008 <nrf_fprintf>
    47de:	2400      	movs	r4, #0
    47e0:	42b4      	cmp	r4, r6
    47e2:	d210      	bcs.n	4806 <nrf_log_hexdump_entry_process+0x72>
    47e4:	5d3d      	ldrb	r5, [r7, r4]
    47e6:	2d7e      	cmp	r5, #126	; 0x7e
    47e8:	d806      	bhi.n	47f8 <nrf_log_hexdump_entry_process+0x64>
    47ea:	f7fb fe71 	bl	4d0 <__rt_ctype_table>
    47ee:	6800      	ldr	r0, [r0, #0]
    47f0:	5d40      	ldrb	r0, [r0, r5]
    47f2:	f010 0f3e 	tst.w	r0, #62	; 0x3e
    47f6:	d100      	bne.n	47fa <nrf_log_hexdump_entry_process+0x66>
    47f8:	252e      	movs	r5, #46	; 0x2e
    47fa:	462a      	mov	r2, r5
    47fc:	a10e      	add	r1, pc, #56	; (adr r1, 4838 <nrf_log_hexdump_entry_process+0xa4>)
    47fe:	4640      	mov	r0, r8
    4800:	f7ff fc02 	bl	4008 <nrf_fprintf>
    4804:	e003      	b.n	480e <nrf_log_hexdump_entry_process+0x7a>
    4806:	a10d      	add	r1, pc, #52	; (adr r1, 483c <nrf_log_hexdump_entry_process+0xa8>)
    4808:	4640      	mov	r0, r8
    480a:	f7ff fbfd 	bl	4008 <nrf_fprintf>
    480e:	1c64      	adds	r4, r4, #1
    4810:	2c08      	cmp	r4, #8
    4812:	d3e5      	bcc.n	47e0 <nrf_log_hexdump_entry_process+0x4c>
    4814:	2201      	movs	r2, #1
    4816:	4641      	mov	r1, r8
    4818:	4650      	mov	r0, sl
    481a:	f000 fbc7 	bl	4fac <postfix_process>
    481e:	f888 900c 	strb.w	r9, [r8, #12]
    4822:	e8bd 87f0 	ldmia.w	sp!, {r4, r5, r6, r7, r8, r9, sl, pc}
    4826:	0000      	.short	0x0000
    4828:	32302520 	.word	0x32302520
    482c:	00000078 	.word	0x00000078
    4830:	00202020 	.word	0x00202020
    4834:	0000007c 	.word	0x0000007c
    4838:	00006325 	.word	0x00006325
    483c:	00000020 	.word	0x00000020

00004840 <nrf_log_init>:
    4840:	b510      	push	{r4, lr}
    4842:	480b      	ldr	r0, [pc, #44]	; (4870 <nrf_log_init+0x30>)
    4844:	21ff      	movs	r1, #255	; 0xff
    4846:	6081      	str	r1, [r0, #8]
    4848:	2100      	movs	r1, #0
    484a:	6001      	str	r1, [r0, #0]
    484c:	6041      	str	r1, [r0, #4]
    484e:	f8c0 1418 	str.w	r1, [r0, #1048]	; 0x418
    4852:	f8c0 1414 	str.w	r1, [r0, #1044]	; 0x414
    4856:	f880 1420 	strb.w	r1, [r0, #1056]	; 0x420
    485a:	4806      	ldr	r0, [pc, #24]	; (4874 <nrf_log_init+0x34>)
    485c:	f000 f8e9 	bl	4a32 <nrf_memobj_pool_init>
    4860:	2800      	cmp	r0, #0
    4862:	d103      	bne.n	486c <nrf_log_init+0x2c>
    4864:	4804      	ldr	r0, [pc, #16]	; (4878 <nrf_log_init+0x38>)
    4866:	f000 f905 	bl	4a74 <nrf_ringbuf_init>
    486a:	2000      	movs	r0, #0
    486c:	bd10      	pop	{r4, pc}
    486e:	0000      	.short	0x0000
    4870:	20000810 	.word	0x20000810
    4874:	000064b8 	.word	0x000064b8
    4878:	00006168 	.word	0x00006168

0000487c <nrf_log_module_cnt_get>:
    487c:	4802      	ldr	r0, [pc, #8]	; (4888 <nrf_log_module_cnt_get+0xc>)
    487e:	4903      	ldr	r1, [pc, #12]	; (488c <nrf_log_module_cnt_get+0x10>)
    4880:	1a40      	subs	r0, r0, r1
    4882:	08c0      	lsrs	r0, r0, #3
    4884:	4770      	bx	lr
	...

00004890 <nrf_log_module_name_get>:
    4890:	b513      	push	{r0, r1, r4, lr}
    4892:	4668      	mov	r0, sp
    4894:	f7ff facc 	bl	3e30 <module_idx_get>
    4898:	b108      	cbz	r0, 489e <nrf_log_module_name_get+0xe>
    489a:	2000      	movs	r0, #0
    489c:	bd1c      	pop	{r2, r3, r4, pc}
    489e:	4803      	ldr	r0, [pc, #12]	; (48ac <nrf_log_module_name_get+0x1c>)
    48a0:	9900      	ldr	r1, [sp, #0]
    48a2:	eb00 00c1 	add.w	r0, r0, r1, lsl #3
    48a6:	6800      	ldr	r0, [r0, #0]
    48a8:	bd1c      	pop	{r2, r3, r4, pc}
    48aa:	0000      	.short	0x0000
    48ac:	00000000 	.word	0x00000000

000048b0 <nrf_log_panic>:
    48b0:	b570      	push	{r4, r5, r6, lr}
    48b2:	4809      	ldr	r0, [pc, #36]	; (48d8 <nrf_log_panic+0x28>)
    48b4:	f8d0 4410 	ldr.w	r4, [r0, #1040]	; 0x410
    48b8:	2501      	movs	r5, #1
    48ba:	f880 5420 	strb.w	r5, [r0, #1056]	; 0x420
    48be:	e007      	b.n	48d0 <nrf_log_panic+0x20>
    48c0:	68e0      	ldr	r0, [r4, #12]
    48c2:	7145      	strb	r5, [r0, #5]
    48c4:	4620      	mov	r0, r4
    48c6:	6801      	ldr	r1, [r0, #0]
    48c8:	6849      	ldr	r1, [r1, #4]
    48ca:	4788      	blx	r1
    48cc:	68e0      	ldr	r0, [r4, #12]
    48ce:	6804      	ldr	r4, [r0, #0]
    48d0:	2c00      	cmp	r4, #0
    48d2:	d1f5      	bne.n	48c0 <nrf_log_panic+0x10>
    48d4:	bd70      	pop	{r4, r5, r6, pc}
    48d6:	0000      	.short	0x0000
    48d8:	20000810 	.word	0x20000810

000048dc <nrf_log_std_entry_process>:
    48dc:	e92d 47ff 	stmdb	sp!, {r0, r1, r2, r3, r4, r5, r6, r7, r8, r9, sl, lr}
    48e0:	4607      	mov	r7, r0
    48e2:	9d0c      	ldr	r5, [sp, #48]	; 0x30
    48e4:	460c      	mov	r4, r1
    48e6:	4691      	mov	r9, r2
    48e8:	4698      	mov	r8, r3
    48ea:	7b2e      	ldrb	r6, [r5, #12]
    48ec:	2000      	movs	r0, #0
    48ee:	7328      	strb	r0, [r5, #12]
    48f0:	4629      	mov	r1, r5
    48f2:	4640      	mov	r0, r8
    48f4:	f000 fb7c 	bl	4ff0 <prefix_process>
    48f8:	f1b9 0f07 	cmp.w	r9, #7
    48fc:	d241      	bcs.n	4982 <nrf_log_std_entry_process+0xa6>
    48fe:	e8df f009 	tbb	[pc, r9]
    4902:	0904      	.short	0x0904
    4904:	271d150f 	.word	0x271d150f
    4908:	0033      	.short	0x0033
    490a:	4639      	mov	r1, r7
    490c:	4628      	mov	r0, r5
    490e:	f7ff fb7b 	bl	4008 <nrf_fprintf>
    4912:	e036      	b.n	4982 <nrf_log_std_entry_process+0xa6>
    4914:	4639      	mov	r1, r7
    4916:	4628      	mov	r0, r5
    4918:	6822      	ldr	r2, [r4, #0]
    491a:	f7ff fb75 	bl	4008 <nrf_fprintf>
    491e:	e030      	b.n	4982 <nrf_log_std_entry_process+0xa6>
    4920:	cc0c      	ldmia	r4!, {r2, r3}
    4922:	4639      	mov	r1, r7
    4924:	4628      	mov	r0, r5
    4926:	f7ff fb6f 	bl	4008 <nrf_fprintf>
    492a:	e02a      	b.n	4982 <nrf_log_std_entry_process+0xa6>
    492c:	68a0      	ldr	r0, [r4, #8]
    492e:	9000      	str	r0, [sp, #0]
    4930:	cc0c      	ldmia	r4!, {r2, r3}
    4932:	4639      	mov	r1, r7
    4934:	4628      	mov	r0, r5
    4936:	f7ff fb67 	bl	4008 <nrf_fprintf>
    493a:	e022      	b.n	4982 <nrf_log_std_entry_process+0xa6>
    493c:	e9d4 0102 	ldrd	r0, r1, [r4, #8]
    4940:	e9cd 0100 	strd	r0, r1, [sp]
    4944:	cc0c      	ldmia	r4!, {r2, r3}
    4946:	4639      	mov	r1, r7
    4948:	4628      	mov	r0, r5
    494a:	f7ff fb5d 	bl	4008 <nrf_fprintf>
    494e:	e018      	b.n	4982 <nrf_log_std_entry_process+0xa6>
    4950:	e9d4 2103 	ldrd	r2, r1, [r4, #12]
    4954:	68a0      	ldr	r0, [r4, #8]
    4956:	e9cd 2101 	strd	r2, r1, [sp, #4]
    495a:	9000      	str	r0, [sp, #0]
    495c:	cc0c      	ldmia	r4!, {r2, r3}
    495e:	4639      	mov	r1, r7
    4960:	4628      	mov	r0, r5
    4962:	f7ff fb51 	bl	4008 <nrf_fprintf>
    4966:	e00c      	b.n	4982 <nrf_log_std_entry_process+0xa6>
    4968:	e9d4 2302 	ldrd	r2, r3, [r4, #8]
    496c:	e9d4 1004 	ldrd	r1, r0, [r4, #16]
    4970:	e9cd 1002 	strd	r1, r0, [sp, #8]
    4974:	e9cd 2300 	strd	r2, r3, [sp]
    4978:	cc0c      	ldmia	r4!, {r2, r3}
    497a:	4639      	mov	r1, r7
    497c:	4628      	mov	r0, r5
    497e:	f7ff fb43 	bl	4008 <nrf_fprintf>
    4982:	2200      	movs	r2, #0
    4984:	4629      	mov	r1, r5
    4986:	4640      	mov	r0, r8
    4988:	f000 fb10 	bl	4fac <postfix_process>
    498c:	732e      	strb	r6, [r5, #12]
    498e:	e8bd 87ff 	ldmia.w	sp!, {r0, r1, r2, r3, r4, r5, r6, r7, r8, r9, sl, pc}

00004992 <nrf_memobj_alloc>:
    4992:	e92d 41f0 	stmdb	sp!, {r4, r5, r6, r7, r8, lr}
    4996:	4607      	mov	r7, r0
    4998:	8a3d      	ldrh	r5, [r7, #16]
    499a:	1f2d      	subs	r5, r5, #4
    499c:	1948      	adds	r0, r1, r5
    499e:	1cc0      	adds	r0, r0, #3
    49a0:	fbb0 f0f5 	udiv	r0, r0, r5
    49a4:	f000 08ff 	and.w	r8, r0, #255	; 0xff
    49a8:	4638      	mov	r0, r7
    49aa:	f7ff fa7f 	bl	3eac <nrf_balloc_alloc>
    49ae:	4604      	mov	r4, r0
    49b0:	0020      	movs	r0, r4
    49b2:	d00a      	beq.n	49ca <nrf_memobj_alloc+0x38>
    49b4:	2000      	movs	r0, #0
    49b6:	7120      	strb	r0, [r4, #4]
    49b8:	2001      	movs	r0, #1
    49ba:	7160      	strb	r0, [r4, #5]
    49bc:	80e5      	strh	r5, [r4, #6]
    49be:	4626      	mov	r6, r4
    49c0:	f1a8 0801 	sub.w	r8, r8, #1
    49c4:	6037      	str	r7, [r6, #0]
    49c6:	2500      	movs	r5, #0
    49c8:	e00d      	b.n	49e6 <nrf_memobj_alloc+0x54>
    49ca:	2000      	movs	r0, #0
    49cc:	e8bd 81f0 	ldmia.w	sp!, {r4, r5, r6, r7, r8, pc}
    49d0:	4638      	mov	r0, r7
    49d2:	f7ff fa6b 	bl	3eac <nrf_balloc_alloc>
    49d6:	b150      	cbz	r0, 49ee <nrf_memobj_alloc+0x5c>
    49d8:	7961      	ldrb	r1, [r4, #5]
    49da:	1c49      	adds	r1, r1, #1
    49dc:	7161      	strb	r1, [r4, #5]
    49de:	6030      	str	r0, [r6, #0]
    49e0:	6007      	str	r7, [r0, #0]
    49e2:	4606      	mov	r6, r0
    49e4:	1c6d      	adds	r5, r5, #1
    49e6:	4545      	cmp	r5, r8
    49e8:	d3f2      	bcc.n	49d0 <nrf_memobj_alloc+0x3e>
    49ea:	4620      	mov	r0, r4
    49ec:	e7ee      	b.n	49cc <nrf_memobj_alloc+0x3a>
    49ee:	4620      	mov	r0, r4
    49f0:	f000 f802 	bl	49f8 <nrf_memobj_free>
    49f4:	2000      	movs	r0, #0
    49f6:	e7e9      	b.n	49cc <nrf_memobj_alloc+0x3a>

000049f8 <nrf_memobj_free>:
    49f8:	e92d 41f0 	stmdb	sp!, {r4, r5, r6, r7, r8, lr}
    49fc:	4601      	mov	r1, r0
    49fe:	794d      	ldrb	r5, [r1, #5]
    4a00:	460a      	mov	r2, r1
    4a02:	1e6b      	subs	r3, r5, #1
    4a04:	2000      	movs	r0, #0
    4a06:	e001      	b.n	4a0c <nrf_memobj_free+0x14>
    4a08:	6812      	ldr	r2, [r2, #0]
    4a0a:	1c40      	adds	r0, r0, #1
    4a0c:	4298      	cmp	r0, r3
    4a0e:	d3fb      	bcc.n	4a08 <nrf_memobj_free+0x10>
    4a10:	6817      	ldr	r7, [r2, #0]
    4a12:	2400      	movs	r4, #0
    4a14:	e005      	b.n	4a22 <nrf_memobj_free+0x2a>
    4a16:	680e      	ldr	r6, [r1, #0]
    4a18:	4638      	mov	r0, r7
    4a1a:	f7ff fa6e 	bl	3efa <nrf_balloc_free>
    4a1e:	4631      	mov	r1, r6
    4a20:	1c64      	adds	r4, r4, #1
    4a22:	42ac      	cmp	r4, r5
    4a24:	d3f7      	bcc.n	4a16 <nrf_memobj_free+0x1e>
    4a26:	e8bd 81f0 	ldmia.w	sp!, {r4, r5, r6, r7, r8, pc}

00004a2a <nrf_memobj_get>:
    4a2a:	2101      	movs	r1, #1
    4a2c:	1d00      	adds	r0, r0, #4
    4a2e:	f7ff ba21 	b.w	3e74 <nrf_atomic_u32_add>

00004a32 <nrf_memobj_pool_init>:
    4a32:	f7ff ba7c 	b.w	3f2e <nrf_balloc_init>

00004a36 <nrf_memobj_put>:
    4a36:	b538      	push	{r3, r4, r5, lr}
    4a38:	4604      	mov	r4, r0
    4a3a:	2101      	movs	r1, #1
    4a3c:	1d20      	adds	r0, r4, #4
    4a3e:	f7ff fa2f 	bl	3ea0 <nrf_atomic_u32_sub>
    4a42:	9000      	str	r0, [sp, #0]
    4a44:	f89d 0000 	ldrb.w	r0, [sp]
    4a48:	2800      	cmp	r0, #0
    4a4a:	d102      	bne.n	4a52 <nrf_memobj_put+0x1c>
    4a4c:	4620      	mov	r0, r4
    4a4e:	f7ff ffd3 	bl	49f8 <nrf_memobj_free>
    4a52:	bd38      	pop	{r3, r4, r5, pc}

00004a54 <nrf_memobj_read>:
    4a54:	b51c      	push	{r2, r3, r4, lr}
    4a56:	9201      	str	r2, [sp, #4]
    4a58:	2201      	movs	r2, #1
    4a5a:	9200      	str	r2, [sp, #0]
    4a5c:	aa01      	add	r2, sp, #4
    4a5e:	f7ff f9a3 	bl	3da8 <memobj_op>
    4a62:	bd1c      	pop	{r2, r3, r4, pc}

00004a64 <nrf_memobj_write>:
    4a64:	b51c      	push	{r2, r3, r4, lr}
    4a66:	9201      	str	r2, [sp, #4]
    4a68:	2200      	movs	r2, #0
    4a6a:	9200      	str	r2, [sp, #0]
    4a6c:	aa01      	add	r2, sp, #4
    4a6e:	f7ff f99b 	bl	3da8 <memobj_op>
    4a72:	bd1c      	pop	{r2, r3, r4, pc}

00004a74 <nrf_ringbuf_init>:
    4a74:	6882      	ldr	r2, [r0, #8]
    4a76:	2100      	movs	r1, #0
    4a78:	6091      	str	r1, [r2, #8]
    4a7a:	6882      	ldr	r2, [r0, #8]
    4a7c:	6111      	str	r1, [r2, #16]
    4a7e:	6882      	ldr	r2, [r0, #8]
    4a80:	6151      	str	r1, [r2, #20]
    4a82:	6882      	ldr	r2, [r0, #8]
    4a84:	60d1      	str	r1, [r2, #12]
    4a86:	6882      	ldr	r2, [r0, #8]
    4a88:	6051      	str	r1, [r2, #4]
    4a8a:	6880      	ldr	r0, [r0, #8]
    4a8c:	6001      	str	r1, [r0, #0]
    4a8e:	4770      	bx	lr

00004a90 <nrf_uart_event_check>:
    4a90:	5840      	ldr	r0, [r0, r1]
    4a92:	2800      	cmp	r0, #0
    4a94:	d000      	beq.n	4a98 <nrf_uart_event_check+0x8>
    4a96:	2001      	movs	r0, #1
    4a98:	4770      	bx	lr

00004a9a <nrf_uart_event_clear>:
    4a9a:	b508      	push	{r3, lr}
    4a9c:	2200      	movs	r2, #0
    4a9e:	5042      	str	r2, [r0, r1]
    4aa0:	5840      	ldr	r0, [r0, r1]
    4aa2:	9000      	str	r0, [sp, #0]
    4aa4:	bd08      	pop	{r3, pc}

00004aa6 <nrf_uart_int_enable_check>:
    4aa6:	f8d0 0304 	ldr.w	r0, [r0, #772]	; 0x304
    4aaa:	4008      	ands	r0, r1
    4aac:	d000      	beq.n	4ab0 <nrf_uart_int_enable_check+0xa>
    4aae:	2001      	movs	r0, #1
    4ab0:	4770      	bx	lr

00004ab2 <nrf_uarte_event_check>:
    4ab2:	5840      	ldr	r0, [r0, r1]
    4ab4:	2800      	cmp	r0, #0
    4ab6:	d000      	beq.n	4aba <nrf_uarte_event_check+0x8>
    4ab8:	2001      	movs	r0, #1
    4aba:	4770      	bx	lr

00004abc <nrf_uarte_event_clear>:
    4abc:	b508      	push	{r3, lr}
    4abe:	2200      	movs	r2, #0
    4ac0:	5042      	str	r2, [r0, r1]
    4ac2:	5840      	ldr	r0, [r0, r1]
    4ac4:	9000      	str	r0, [sp, #0]
    4ac6:	bd08      	pop	{r3, pc}

00004ac8 <nrfx_is_in_ram>:
    4ac8:	2101      	movs	r1, #1
    4aca:	ebb1 7f50 	cmp.w	r1, r0, lsr #29
    4ace:	d101      	bne.n	4ad4 <nrfx_is_in_ram+0xc>
    4ad0:	2001      	movs	r0, #1
    4ad2:	4770      	bx	lr
    4ad4:	2000      	movs	r0, #0
    4ad6:	4770      	bx	lr

00004ad8 <nrfx_prs_acquire>:
    4ad8:	b570      	push	{r4, r5, r6, lr}
    4ada:	460e      	mov	r6, r1
    4adc:	f000 fb48 	bl	5170 <prs_box_get>
    4ae0:	4604      	mov	r4, r0
    4ae2:	b184      	cbz	r4, 4b06 <nrfx_prs_acquire+0x2e>
    4ae4:	2500      	movs	r5, #0
    4ae6:	2000      	movs	r0, #0
    4ae8:	f7fd f8b4 	bl	1c54 <app_util_critical_region_enter>
    4aec:	7920      	ldrb	r0, [r4, #4]
    4aee:	b108      	cbz	r0, 4af4 <nrfx_prs_acquire+0x1c>
    4af0:	2501      	movs	r5, #1
    4af2:	e002      	b.n	4afa <nrfx_prs_acquire+0x22>
    4af4:	6026      	str	r6, [r4, #0]
    4af6:	2001      	movs	r0, #1
    4af8:	7120      	strb	r0, [r4, #4]
    4afa:	2000      	movs	r0, #0
    4afc:	f7fd f8ac 	bl	1c58 <app_util_critical_region_exit>
    4b00:	b10d      	cbz	r5, 4b06 <nrfx_prs_acquire+0x2e>
    4b02:	2011      	movs	r0, #17
    4b04:	bd70      	pop	{r4, r5, r6, pc}
    4b06:	2000      	movs	r0, #0
    4b08:	bd70      	pop	{r4, r5, r6, pc}
	...

00004b0c <nrfx_uart_0_irq_handler>:
    4b0c:	4901      	ldr	r1, [pc, #4]	; (4b14 <nrfx_uart_0_irq_handler+0x8>)
    4b0e:	4802      	ldr	r0, [pc, #8]	; (4b18 <nrfx_uart_0_irq_handler+0xc>)
    4b10:	f001 b930 	b.w	5d74 <uart_irq_handler>
    4b14:	20000608 	.word	0x20000608
    4b18:	40002000 	.word	0x40002000

00004b1c <nrfx_uart_init>:
    4b1c:	e92d 41f0 	stmdb	sp!, {r4, r5, r6, r7, r8, lr}
    4b20:	4605      	mov	r5, r0
    4b22:	460f      	mov	r7, r1
    4b24:	4616      	mov	r6, r2
    4b26:	792b      	ldrb	r3, [r5, #4]
    4b28:	4917      	ldr	r1, [pc, #92]	; (4b88 <nrfx_uart_init+0x6c>)
    4b2a:	eb03 0043 	add.w	r0, r3, r3, lsl #1
    4b2e:	eb00 00c3 	add.w	r0, r0, r3, lsl #3
    4b32:	eb01 0480 	add.w	r4, r1, r0, lsl #2
    4b36:	f894 002a 	ldrb.w	r0, [r4, #42]	; 0x2a
    4b3a:	2800      	cmp	r0, #0
    4b3c:	d002      	beq.n	4b44 <nrfx_uart_init+0x28>
    4b3e:	2008      	movs	r0, #8
    4b40:	e8bd 81f0 	ldmia.w	sp!, {r4, r5, r6, r7, r8, pc}
    4b44:	4811      	ldr	r0, [pc, #68]	; (4b8c <nrfx_uart_init+0x70>)
    4b46:	f850 1023 	ldr.w	r1, [r0, r3, lsl #2]
    4b4a:	6828      	ldr	r0, [r5, #0]
    4b4c:	f7ff ffc4 	bl	4ad8 <nrfx_prs_acquire>
    4b50:	b108      	cbz	r0, 4b56 <nrfx_uart_init+0x3a>
    4b52:	2011      	movs	r0, #17
    4b54:	e7f4      	b.n	4b40 <nrfx_uart_init+0x24>
    4b56:	4639      	mov	r1, r7
    4b58:	4628      	mov	r0, r5
    4b5a:	f7fd f891 	bl	1c80 <apply_config>
    4b5e:	6066      	str	r6, [r4, #4]
    4b60:	6938      	ldr	r0, [r7, #16]
    4b62:	6020      	str	r0, [r4, #0]
    4b64:	b11e      	cbz	r6, 4b6e <nrfx_uart_init+0x52>
    4b66:	7f39      	ldrb	r1, [r7, #28]
    4b68:	4628      	mov	r0, r5
    4b6a:	f7fe fdf9 	bl	3760 <interrupts_enable>
    4b6e:	6828      	ldr	r0, [r5, #0]
    4b70:	2104      	movs	r1, #4
    4b72:	f8c0 1500 	str.w	r1, [r0, #1280]	; 0x500
    4b76:	2000      	movs	r0, #0
    4b78:	3414      	adds	r4, #20
    4b7a:	6060      	str	r0, [r4, #4]
    4b7c:	60a0      	str	r0, [r4, #8]
    4b7e:	7560      	strb	r0, [r4, #21]
    4b80:	6020      	str	r0, [r4, #0]
    4b82:	2101      	movs	r1, #1
    4b84:	75a1      	strb	r1, [r4, #22]
    4b86:	e7db      	b.n	4b40 <nrfx_uart_init+0x24>
    4b88:	20000608 	.word	0x20000608
    4b8c:	0000611c 	.word	0x0000611c

00004b90 <nrfx_uart_rx>:
    4b90:	e92d 5ff0 	stmdb	sp!, {r4, r5, r6, r7, r8, r9, sl, fp, ip, lr}
    4b94:	4605      	mov	r5, r0
    4b96:	7928      	ldrb	r0, [r5, #4]
    4b98:	eb00 0340 	add.w	r3, r0, r0, lsl #1
    4b9c:	eb03 00c0 	add.w	r0, r3, r0, lsl #3
    4ba0:	4b35      	ldr	r3, [pc, #212]	; (4c78 <nrfx_uart_rx+0xe8>)
    4ba2:	eb03 0480 	add.w	r4, r3, r0, lsl #2
    4ba6:	2000      	movs	r0, #0
    4ba8:	6863      	ldr	r3, [r4, #4]
    4baa:	f44f 7601 	mov.w	r6, #516	; 0x204
    4bae:	2b00      	cmp	r3, #0
    4bb0:	d002      	beq.n	4bb8 <nrfx_uart_rx+0x28>
    4bb2:	682b      	ldr	r3, [r5, #0]
    4bb4:	f8c3 6308 	str.w	r6, [r3, #776]	; 0x308
    4bb8:	69a3      	ldr	r3, [r4, #24]
    4bba:	b153      	cbz	r3, 4bd2 <nrfx_uart_rx+0x42>
    4bbc:	69e0      	ldr	r0, [r4, #28]
    4bbe:	b138      	cbz	r0, 4bd0 <nrfx_uart_rx+0x40>
    4bc0:	6860      	ldr	r0, [r4, #4]
    4bc2:	b110      	cbz	r0, 4bca <nrfx_uart_rx+0x3a>
    4bc4:	6828      	ldr	r0, [r5, #0]
    4bc6:	f8c0 6304 	str.w	r6, [r0, #772]	; 0x304
    4bca:	2011      	movs	r0, #17
    4bcc:	e8bd 9ff0 	ldmia.w	sp!, {r4, r5, r6, r7, r8, r9, sl, fp, ip, pc}
    4bd0:	2001      	movs	r0, #1
    4bd2:	b128      	cbz	r0, 4be0 <nrfx_uart_rx+0x50>
    4bd4:	6121      	str	r1, [r4, #16]
    4bd6:	61e2      	str	r2, [r4, #28]
    4bd8:	f894 1029 	ldrb.w	r1, [r4, #41]	; 0x29
    4bdc:	b131      	cbz	r1, 4bec <nrfx_uart_rx+0x5c>
    4bde:	e009      	b.n	4bf4 <nrfx_uart_rx+0x64>
    4be0:	61a2      	str	r2, [r4, #24]
    4be2:	60e1      	str	r1, [r4, #12]
    4be4:	2100      	movs	r1, #0
    4be6:	6261      	str	r1, [r4, #36]	; 0x24
    4be8:	61e1      	str	r1, [r4, #28]
    4bea:	e7f5      	b.n	4bd8 <nrfx_uart_rx+0x48>
    4bec:	b910      	cbnz	r0, 4bf4 <nrfx_uart_rx+0x64>
    4bee:	4628      	mov	r0, r5
    4bf0:	f000 fc52 	bl	5498 <rx_enable>
    4bf4:	6860      	ldr	r0, [r4, #4]
    4bf6:	b120      	cbz	r0, 4c02 <nrfx_uart_rx+0x72>
    4bf8:	6828      	ldr	r0, [r5, #0]
    4bfa:	f8c0 6304 	str.w	r6, [r0, #772]	; 0x304
    4bfe:	2000      	movs	r0, #0
    4c00:	e7e4      	b.n	4bcc <nrfx_uart_rx+0x3c>
    4c02:	f44f 79a2 	mov.w	r9, #324	; 0x144
    4c06:	4649      	mov	r1, r9
    4c08:	6828      	ldr	r0, [r5, #0]
    4c0a:	f7ff ff46 	bl	4a9a <nrf_uart_event_clear>
    4c0e:	f44f 7a92 	mov.w	sl, #292	; 0x124
    4c12:	f44f 7b84 	mov.w	fp, #264	; 0x108
    4c16:	4651      	mov	r1, sl
    4c18:	6828      	ldr	r0, [r5, #0]
    4c1a:	f7ff ff39 	bl	4a90 <nrf_uart_event_check>
    4c1e:	4607      	mov	r7, r0
    4c20:	4659      	mov	r1, fp
    4c22:	6828      	ldr	r0, [r5, #0]
    4c24:	f7ff ff34 	bl	4a90 <nrf_uart_event_check>
    4c28:	4680      	mov	r8, r0
    4c2a:	4649      	mov	r1, r9
    4c2c:	6828      	ldr	r0, [r5, #0]
    4c2e:	f7ff ff2f 	bl	4a90 <nrf_uart_event_check>
    4c32:	4606      	mov	r6, r0
    4c34:	ea48 0806 	orr.w	r8, r8, r6
    4c38:	ea58 0807 	orrs.w	r8, r8, r7
    4c3c:	d0eb      	beq.n	4c16 <nrfx_uart_rx+0x86>
    4c3e:	ea57 0006 	orrs.w	r0, r7, r6
    4c42:	d107      	bne.n	4c54 <nrfx_uart_rx+0xc4>
    4c44:	4621      	mov	r1, r4
    4c46:	6828      	ldr	r0, [r5, #0]
    4c48:	f000 fbf8 	bl	543c <rx_byte>
    4c4c:	6a61      	ldr	r1, [r4, #36]	; 0x24
    4c4e:	69a0      	ldr	r0, [r4, #24]
    4c50:	4288      	cmp	r0, r1
    4c52:	d8e0      	bhi.n	4c16 <nrfx_uart_rx+0x86>
    4c54:	2000      	movs	r0, #0
    4c56:	61a0      	str	r0, [r4, #24]
    4c58:	b10f      	cbz	r7, 4c5e <nrfx_uart_rx+0xce>
    4c5a:	2003      	movs	r0, #3
    4c5c:	e7b6      	b.n	4bcc <nrfx_uart_rx+0x3c>
    4c5e:	b10e      	cbz	r6, 4c64 <nrfx_uart_rx+0xd4>
    4c60:	200f      	movs	r0, #15
    4c62:	e7b3      	b.n	4bcc <nrfx_uart_rx+0x3c>
    4c64:	f894 0029 	ldrb.w	r0, [r4, #41]	; 0x29
    4c68:	2101      	movs	r1, #1
    4c6a:	b110      	cbz	r0, 4c72 <nrfx_uart_rx+0xe2>
    4c6c:	6828      	ldr	r0, [r5, #0]
    4c6e:	6001      	str	r1, [r0, #0]
    4c70:	e7c5      	b.n	4bfe <nrfx_uart_rx+0x6e>
    4c72:	6828      	ldr	r0, [r5, #0]
    4c74:	6041      	str	r1, [r0, #4]
    4c76:	e7c2      	b.n	4bfe <nrfx_uart_rx+0x6e>
    4c78:	20000608 	.word	0x20000608

00004c7c <nrfx_uart_tx>:
    4c7c:	e92d 47f0 	stmdb	sp!, {r4, r5, r6, r7, r8, r9, sl, lr}
    4c80:	4604      	mov	r4, r0
    4c82:	460b      	mov	r3, r1
    4c84:	7920      	ldrb	r0, [r4, #4]
    4c86:	eb00 0140 	add.w	r1, r0, r0, lsl #1
    4c8a:	eb01 00c0 	add.w	r0, r1, r0, lsl #3
    4c8e:	491a      	ldr	r1, [pc, #104]	; (4cf8 <nrfx_uart_tx+0x7c>)
    4c90:	eb01 0580 	add.w	r5, r1, r0, lsl #2
    4c94:	4620      	mov	r0, r4
    4c96:	f000 f831 	bl	4cfc <nrfx_uart_tx_in_progress>
    4c9a:	b110      	cbz	r0, 4ca2 <nrfx_uart_tx+0x26>
    4c9c:	2011      	movs	r0, #17
    4c9e:	e8bd 87f0 	ldmia.w	sp!, {r4, r5, r6, r7, r8, r9, sl, pc}
    4ca2:	616a      	str	r2, [r5, #20]
    4ca4:	60ab      	str	r3, [r5, #8]
    4ca6:	2700      	movs	r7, #0
    4ca8:	622f      	str	r7, [r5, #32]
    4caa:	f885 7028 	strb.w	r7, [r5, #40]	; 0x28
    4cae:	2600      	movs	r6, #0
    4cb0:	f44f 798e 	mov.w	r9, #284	; 0x11c
    4cb4:	4649      	mov	r1, r9
    4cb6:	6820      	ldr	r0, [r4, #0]
    4cb8:	f7ff feef 	bl	4a9a <nrf_uart_event_clear>
    4cbc:	6820      	ldr	r0, [r4, #0]
    4cbe:	f04f 0801 	mov.w	r8, #1
    4cc2:	f8c0 8008 	str.w	r8, [r0, #8]
    4cc6:	4629      	mov	r1, r5
    4cc8:	6820      	ldr	r0, [r4, #0]
    4cca:	f000 ff81 	bl	5bd0 <tx_byte>
    4cce:	6868      	ldr	r0, [r5, #4]
    4cd0:	b970      	cbnz	r0, 4cf0 <nrfx_uart_tx+0x74>
    4cd2:	4629      	mov	r1, r5
    4cd4:	6820      	ldr	r0, [r4, #0]
    4cd6:	f000 ff5e 	bl	5b96 <tx_blocking>
    4cda:	b158      	cbz	r0, 4cf4 <nrfx_uart_tx+0x78>
    4cdc:	4649      	mov	r1, r9
    4cde:	6820      	ldr	r0, [r4, #0]
    4ce0:	f7ff fed6 	bl	4a90 <nrf_uart_event_check>
    4ce4:	2800      	cmp	r0, #0
    4ce6:	d0f9      	beq.n	4cdc <nrfx_uart_tx+0x60>
    4ce8:	6820      	ldr	r0, [r4, #0]
    4cea:	f8c0 800c 	str.w	r8, [r0, #12]
    4cee:	616f      	str	r7, [r5, #20]
    4cf0:	4630      	mov	r0, r6
    4cf2:	e7d4      	b.n	4c9e <nrfx_uart_tx+0x22>
    4cf4:	260f      	movs	r6, #15
    4cf6:	e7fa      	b.n	4cee <nrfx_uart_tx+0x72>
    4cf8:	20000608 	.word	0x20000608

00004cfc <nrfx_uart_tx_in_progress>:
    4cfc:	7900      	ldrb	r0, [r0, #4]
    4cfe:	eb00 0140 	add.w	r1, r0, r0, lsl #1
    4d02:	eb01 00c0 	add.w	r0, r1, r0, lsl #3
    4d06:	4904      	ldr	r1, [pc, #16]	; (4d18 <nrfx_uart_tx_in_progress+0x1c>)
    4d08:	eb01 0080 	add.w	r0, r1, r0, lsl #2
    4d0c:	6940      	ldr	r0, [r0, #20]
    4d0e:	2800      	cmp	r0, #0
    4d10:	d000      	beq.n	4d14 <nrfx_uart_tx_in_progress+0x18>
    4d12:	2001      	movs	r0, #1
    4d14:	4770      	bx	lr
    4d16:	0000      	.short	0x0000
    4d18:	20000608 	.word	0x20000608

00004d1c <nrfx_uarte_0_irq_handler>:
    4d1c:	4901      	ldr	r1, [pc, #4]	; (4d24 <nrfx_uarte_0_irq_handler+0x8>)
    4d1e:	4802      	ldr	r0, [pc, #8]	; (4d28 <nrfx_uarte_0_irq_handler+0xc>)
    4d20:	f001 b8da 	b.w	5ed8 <uarte_irq_handler>
    4d24:	20000634 	.word	0x20000634
    4d28:	40002000 	.word	0x40002000

00004d2c <nrfx_uarte_init>:
    4d2c:	e92d 41f0 	stmdb	sp!, {r4, r5, r6, r7, r8, lr}
    4d30:	4605      	mov	r5, r0
    4d32:	460f      	mov	r7, r1
    4d34:	4616      	mov	r6, r2
    4d36:	792b      	ldrb	r3, [r5, #4]
    4d38:	4916      	ldr	r1, [pc, #88]	; (4d94 <nrfx_uarte_init+0x68>)
    4d3a:	eb03 00c3 	add.w	r0, r3, r3, lsl #3
    4d3e:	eb01 0480 	add.w	r4, r1, r0, lsl #2
    4d42:	f894 0020 	ldrb.w	r0, [r4, #32]
    4d46:	2800      	cmp	r0, #0
    4d48:	d002      	beq.n	4d50 <nrfx_uarte_init+0x24>
    4d4a:	2008      	movs	r0, #8
    4d4c:	e8bd 81f0 	ldmia.w	sp!, {r4, r5, r6, r7, r8, pc}
    4d50:	4811      	ldr	r0, [pc, #68]	; (4d98 <nrfx_uarte_init+0x6c>)
    4d52:	f850 1023 	ldr.w	r1, [r0, r3, lsl #2]
    4d56:	6828      	ldr	r0, [r5, #0]
    4d58:	f7ff febe 	bl	4ad8 <nrfx_prs_acquire>
    4d5c:	b108      	cbz	r0, 4d62 <nrfx_uarte_init+0x36>
    4d5e:	2011      	movs	r0, #17
    4d60:	e7f4      	b.n	4d4c <nrfx_uarte_init+0x20>
    4d62:	4639      	mov	r1, r7
    4d64:	4628      	mov	r0, r5
    4d66:	f7fc ffc6 	bl	1cf6 <apply_config>
    4d6a:	6066      	str	r6, [r4, #4]
    4d6c:	6938      	ldr	r0, [r7, #16]
    4d6e:	6020      	str	r0, [r4, #0]
    4d70:	b11e      	cbz	r6, 4d7a <nrfx_uarte_init+0x4e>
    4d72:	7f39      	ldrb	r1, [r7, #28]
    4d74:	4628      	mov	r0, r5
    4d76:	f7fe fd27 	bl	37c8 <interrupts_enable>
    4d7a:	6828      	ldr	r0, [r5, #0]
    4d7c:	2108      	movs	r1, #8
    4d7e:	f8c0 1500 	str.w	r1, [r0, #1280]	; 0x500
    4d82:	2000      	movs	r0, #0
    4d84:	61a0      	str	r0, [r4, #24]
    4d86:	61e0      	str	r0, [r4, #28]
    4d88:	6160      	str	r0, [r4, #20]
    4d8a:	2101      	movs	r1, #1
    4d8c:	f884 1020 	strb.w	r1, [r4, #32]
    4d90:	e7dc      	b.n	4d4c <nrfx_uarte_init+0x20>
    4d92:	0000      	.short	0x0000
    4d94:	20000634 	.word	0x20000634
    4d98:	00006120 	.word	0x00006120

00004d9c <nrfx_uarte_rx>:
    4d9c:	e92d 5ff0 	stmdb	sp!, {r4, r5, r6, r7, r8, r9, sl, fp, ip, lr}
    4da0:	4604      	mov	r4, r0
    4da2:	460f      	mov	r7, r1
    4da4:	4690      	mov	r8, r2
    4da6:	7920      	ldrb	r0, [r4, #4]
    4da8:	f8df a0ec 	ldr.w	sl, [pc, #236]	; 4e98 <nrfx_uarte_rx+0xfc>
    4dac:	eb00 00c0 	add.w	r0, r0, r0, lsl #3
    4db0:	eb0a 0580 	add.w	r5, sl, r0, lsl #2
    4db4:	4638      	mov	r0, r7
    4db6:	f7ff fe87 	bl	4ac8 <nrfx_is_in_ram>
    4dba:	b198      	cbz	r0, 4de4 <nrfx_uarte_rx+0x48>
    4dbc:	2600      	movs	r6, #0
    4dbe:	6868      	ldr	r0, [r5, #4]
    4dc0:	f44f 7904 	mov.w	r9, #528	; 0x210
    4dc4:	b110      	cbz	r0, 4dcc <nrfx_uarte_rx+0x30>
    4dc6:	6820      	ldr	r0, [r4, #0]
    4dc8:	f8c0 9308 	str.w	r9, [r0, #776]	; 0x308
    4dcc:	69a8      	ldr	r0, [r5, #24]
    4dce:	b160      	cbz	r0, 4dea <nrfx_uarte_rx+0x4e>
    4dd0:	69e8      	ldr	r0, [r5, #28]
    4dd2:	b148      	cbz	r0, 4de8 <nrfx_uarte_rx+0x4c>
    4dd4:	6868      	ldr	r0, [r5, #4]
    4dd6:	b110      	cbz	r0, 4dde <nrfx_uarte_rx+0x42>
    4dd8:	6820      	ldr	r0, [r4, #0]
    4dda:	f8c0 9304 	str.w	r9, [r0, #772]	; 0x304
    4dde:	2011      	movs	r0, #17
    4de0:	e8bd 9ff0 	ldmia.w	sp!, {r4, r5, r6, r7, r8, r9, sl, fp, ip, pc}
    4de4:	2010      	movs	r0, #16
    4de6:	e7fb      	b.n	4de0 <nrfx_uarte_rx+0x44>
    4de8:	2601      	movs	r6, #1
    4dea:	f04f 0b00 	mov.w	fp, #0
    4dee:	b336      	cbz	r6, 4e3e <nrfx_uarte_rx+0xa2>
    4df0:	612f      	str	r7, [r5, #16]
    4df2:	f8c5 801c 	str.w	r8, [r5, #28]
    4df6:	2500      	movs	r5, #0
    4df8:	f44f 7188 	mov.w	r1, #272	; 0x110
    4dfc:	6820      	ldr	r0, [r4, #0]
    4dfe:	f7ff fe5d 	bl	4abc <nrf_uarte_event_clear>
    4e02:	f44f 71a2 	mov.w	r1, #324	; 0x144
    4e06:	6820      	ldr	r0, [r4, #0]
    4e08:	f7ff fe58 	bl	4abc <nrf_uarte_event_clear>
    4e0c:	6820      	ldr	r0, [r4, #0]
    4e0e:	f8c0 7534 	str.w	r7, [r0, #1332]	; 0x534
    4e12:	f8c0 8538 	str.w	r8, [r0, #1336]	; 0x538
    4e16:	b1c6      	cbz	r6, 4e4a <nrfx_uarte_rx+0xae>
    4e18:	6820      	ldr	r0, [r4, #0]
    4e1a:	f8d0 1200 	ldr.w	r1, [r0, #512]	; 0x200
    4e1e:	f041 0120 	orr.w	r1, r1, #32
    4e22:	f8c0 1200 	str.w	r1, [r0, #512]	; 0x200
    4e26:	7920      	ldrb	r0, [r4, #4]
    4e28:	eb00 00c0 	add.w	r0, r0, r0, lsl #3
    4e2c:	eb0a 0080 	add.w	r0, sl, r0, lsl #2
    4e30:	6840      	ldr	r0, [r0, #4]
    4e32:	b170      	cbz	r0, 4e52 <nrfx_uarte_rx+0xb6>
    4e34:	6820      	ldr	r0, [r4, #0]
    4e36:	f8c0 9304 	str.w	r9, [r0, #772]	; 0x304
    4e3a:	4628      	mov	r0, r5
    4e3c:	e7d0      	b.n	4de0 <nrfx_uarte_rx+0x44>
    4e3e:	f8c5 8018 	str.w	r8, [r5, #24]
    4e42:	60ef      	str	r7, [r5, #12]
    4e44:	f8c5 b01c 	str.w	fp, [r5, #28]
    4e48:	e7d5      	b.n	4df6 <nrfx_uarte_rx+0x5a>
    4e4a:	6820      	ldr	r0, [r4, #0]
    4e4c:	2101      	movs	r1, #1
    4e4e:	6001      	str	r1, [r0, #0]
    4e50:	e7e9      	b.n	4e26 <nrfx_uarte_rx+0x8a>
    4e52:	f44f 7888 	mov.w	r8, #272	; 0x110
    4e56:	f44f 79a2 	mov.w	r9, #324	; 0x144
    4e5a:	4641      	mov	r1, r8
    4e5c:	6820      	ldr	r0, [r4, #0]
    4e5e:	f7ff fe28 	bl	4ab2 <nrf_uarte_event_check>
    4e62:	4607      	mov	r7, r0
    4e64:	4649      	mov	r1, r9
    4e66:	6820      	ldr	r0, [r4, #0]
    4e68:	f7ff fe23 	bl	4ab2 <nrf_uarte_event_check>
    4e6c:	4606      	mov	r6, r0
    4e6e:	f44f 7192 	mov.w	r1, #292	; 0x124
    4e72:	6820      	ldr	r0, [r4, #0]
    4e74:	f7ff fe1d 	bl	4ab2 <nrf_uarte_event_check>
    4e78:	4337      	orrs	r7, r6
    4e7a:	4307      	orrs	r7, r0
    4e7c:	d0ed      	beq.n	4e5a <nrfx_uarte_rx+0xbe>
    4e7e:	7921      	ldrb	r1, [r4, #4]
    4e80:	eb01 01c1 	add.w	r1, r1, r1, lsl #3
    4e84:	eb0a 0181 	add.w	r1, sl, r1, lsl #2
    4e88:	f8c1 b018 	str.w	fp, [r1, #24]
    4e8c:	b100      	cbz	r0, 4e90 <nrfx_uarte_rx+0xf4>
    4e8e:	2503      	movs	r5, #3
    4e90:	2e00      	cmp	r6, #0
    4e92:	d0d2      	beq.n	4e3a <nrfx_uarte_rx+0x9e>
    4e94:	250f      	movs	r5, #15
    4e96:	e7d0      	b.n	4e3a <nrfx_uarte_rx+0x9e>
    4e98:	20000634 	.word	0x20000634

00004e9c <nrfx_uarte_tx>:
    4e9c:	e92d 47f0 	stmdb	sp!, {r4, r5, r6, r7, r8, r9, sl, lr}
    4ea0:	4604      	mov	r4, r0
    4ea2:	460f      	mov	r7, r1
    4ea4:	4616      	mov	r6, r2
    4ea6:	7920      	ldrb	r0, [r4, #4]
    4ea8:	4925      	ldr	r1, [pc, #148]	; (4f40 <nrfx_uarte_tx+0xa4>)
    4eaa:	eb00 00c0 	add.w	r0, r0, r0, lsl #3
    4eae:	eb01 0580 	add.w	r5, r1, r0, lsl #2
    4eb2:	4638      	mov	r0, r7
    4eb4:	f7ff fe08 	bl	4ac8 <nrfx_is_in_ram>
    4eb8:	b130      	cbz	r0, 4ec8 <nrfx_uarte_tx+0x2c>
    4eba:	4620      	mov	r0, r4
    4ebc:	f000 f842 	bl	4f44 <nrfx_uarte_tx_in_progress>
    4ec0:	b120      	cbz	r0, 4ecc <nrfx_uarte_tx+0x30>
    4ec2:	2011      	movs	r0, #17
    4ec4:	e8bd 87f0 	ldmia.w	sp!, {r4, r5, r6, r7, r8, r9, sl, pc}
    4ec8:	2010      	movs	r0, #16
    4eca:	e7fb      	b.n	4ec4 <nrfx_uarte_tx+0x28>
    4ecc:	616e      	str	r6, [r5, #20]
    4ece:	60af      	str	r7, [r5, #8]
    4ed0:	f04f 0800 	mov.w	r8, #0
    4ed4:	f44f 7a90 	mov.w	sl, #288	; 0x120
    4ed8:	4651      	mov	r1, sl
    4eda:	6820      	ldr	r0, [r4, #0]
    4edc:	f7ff fdee 	bl	4abc <nrf_uarte_event_clear>
    4ee0:	f44f 76ac 	mov.w	r6, #344	; 0x158
    4ee4:	4631      	mov	r1, r6
    4ee6:	6820      	ldr	r0, [r4, #0]
    4ee8:	f7ff fde8 	bl	4abc <nrf_uarte_event_clear>
    4eec:	6820      	ldr	r0, [r4, #0]
    4eee:	696a      	ldr	r2, [r5, #20]
    4ef0:	68a9      	ldr	r1, [r5, #8]
    4ef2:	f8c0 1544 	str.w	r1, [r0, #1348]	; 0x544
    4ef6:	f8c0 2548 	str.w	r2, [r0, #1352]	; 0x548
    4efa:	6820      	ldr	r0, [r4, #0]
    4efc:	f04f 0901 	mov.w	r9, #1
    4f00:	f8c0 9008 	str.w	r9, [r0, #8]
    4f04:	6868      	ldr	r0, [r5, #4]
    4f06:	b9c8      	cbnz	r0, 4f3c <nrfx_uarte_tx+0xa0>
    4f08:	4651      	mov	r1, sl
    4f0a:	6820      	ldr	r0, [r4, #0]
    4f0c:	f7ff fdd1 	bl	4ab2 <nrf_uarte_event_check>
    4f10:	4607      	mov	r7, r0
    4f12:	4631      	mov	r1, r6
    4f14:	6820      	ldr	r0, [r4, #0]
    4f16:	f7ff fdcc 	bl	4ab2 <nrf_uarte_event_check>
    4f1a:	4307      	orrs	r7, r0
    4f1c:	d0f4      	beq.n	4f08 <nrfx_uarte_tx+0x6c>
    4f1e:	b110      	cbz	r0, 4f26 <nrfx_uarte_tx+0x8a>
    4f20:	f04f 080f 	mov.w	r8, #15
    4f24:	e008      	b.n	4f38 <nrfx_uarte_tx+0x9c>
    4f26:	6820      	ldr	r0, [r4, #0]
    4f28:	f8c0 900c 	str.w	r9, [r0, #12]
    4f2c:	4631      	mov	r1, r6
    4f2e:	6820      	ldr	r0, [r4, #0]
    4f30:	f7ff fdbf 	bl	4ab2 <nrf_uarte_event_check>
    4f34:	2800      	cmp	r0, #0
    4f36:	d0f9      	beq.n	4f2c <nrfx_uarte_tx+0x90>
    4f38:	2000      	movs	r0, #0
    4f3a:	6168      	str	r0, [r5, #20]
    4f3c:	4640      	mov	r0, r8
    4f3e:	e7c1      	b.n	4ec4 <nrfx_uarte_tx+0x28>
    4f40:	20000634 	.word	0x20000634

00004f44 <nrfx_uarte_tx_in_progress>:
    4f44:	7900      	ldrb	r0, [r0, #4]
    4f46:	4905      	ldr	r1, [pc, #20]	; (4f5c <nrfx_uarte_tx_in_progress+0x18>)
    4f48:	eb00 00c0 	add.w	r0, r0, r0, lsl #3
    4f4c:	eb01 0080 	add.w	r0, r1, r0, lsl #2
    4f50:	6940      	ldr	r0, [r0, #20]
    4f52:	2800      	cmp	r0, #0
    4f54:	d000      	beq.n	4f58 <nrfx_uarte_tx_in_progress+0x14>
    4f56:	2001      	movs	r0, #1
    4f58:	4770      	bx	lr
    4f5a:	0000      	.short	0x0000
    4f5c:	20000634 	.word	0x20000634

00004f60 <on_button_click>:
    4f60:	b510      	push	{r4, lr}
    4f62:	1e44      	subs	r4, r0, #1
    4f64:	4809      	ldr	r0, [pc, #36]	; (4f8c <on_button_click+0x2c>)
    4f66:	490a      	ldr	r1, [pc, #40]	; (4f90 <on_button_click+0x30>)
    4f68:	4622      	mov	r2, r4
    4f6a:	1a40      	subs	r0, r0, r1
    4f6c:	08c0      	lsrs	r0, r0, #3
    4f6e:	2103      	movs	r1, #3
    4f70:	eb01 4000 	add.w	r0, r1, r0, lsl #16
    4f74:	a107      	add	r1, pc, #28	; (adr r1, 4f94 <on_button_click+0x34>)
    4f76:	f7ff fc05 	bl	4784 <nrf_log_frontend_std_1>
    4f7a:	f7ff fad5 	bl	4528 <nrf_log_frontend_dequeue>
    4f7e:	2800      	cmp	r0, #0
    4f80:	d1fb      	bne.n	4f7a <on_button_click+0x1a>
    4f82:	b2e0      	uxtb	r0, r4
    4f84:	e8bd 4010 	ldmia.w	sp!, {r4, lr}
    4f88:	f000 ba0e 	b.w	53a8 <run_test_by_id>
    4f8c:	000064b0 	.word	0x000064b0
    4f90:	00000000 	.word	0x00000000
    4f94:	42206e4f 	.word	0x42206e4f
    4f98:	6f747475 	.word	0x6f747475
    4f9c:	6c43206e 	.word	0x6c43206e
    4fa0:	3a6b6369 	.word	0x3a6b6369
    4fa4:	0a642520 	.word	0x0a642520
    4fa8:	00000000 	.word	0x00000000

00004fac <postfix_process>:
    4fac:	b510      	push	{r4, lr}
    4fae:	460c      	mov	r4, r1
    4fb0:	7a03      	ldrb	r3, [r0, #8]
    4fb2:	2b05      	cmp	r3, #5
    4fb4:	d00c      	beq.n	4fd0 <postfix_process+0x24>
    4fb6:	7a40      	ldrb	r0, [r0, #9]
    4fb8:	b128      	cbz	r0, 4fc6 <postfix_process+0x1a>
    4fba:	480a      	ldr	r0, [pc, #40]	; (4fe4 <postfix_process+0x38>)
    4fbc:	a10a      	add	r1, pc, #40	; (adr r1, 4fe8 <postfix_process+0x3c>)
    4fbe:	6802      	ldr	r2, [r0, #0]
    4fc0:	4620      	mov	r0, r4
    4fc2:	f7ff f821 	bl	4008 <nrf_fprintf>
    4fc6:	a109      	add	r1, pc, #36	; (adr r1, 4fec <postfix_process+0x40>)
    4fc8:	4620      	mov	r0, r4
    4fca:	f7ff f81d 	bl	4008 <nrf_fprintf>
    4fce:	e004      	b.n	4fda <postfix_process+0x2e>
    4fd0:	b11a      	cbz	r2, 4fda <postfix_process+0x2e>
    4fd2:	a106      	add	r1, pc, #24	; (adr r1, 4fec <postfix_process+0x40>)
    4fd4:	4620      	mov	r0, r4
    4fd6:	f7ff f817 	bl	4008 <nrf_fprintf>
    4fda:	4620      	mov	r0, r4
    4fdc:	e8bd 4010 	ldmia.w	sp!, {r4, lr}
    4fe0:	f7ff b81f 	b.w	4022 <nrf_fprintf_buffer_flush>
    4fe4:	20000074 	.word	0x20000074
    4fe8:	00007325 	.word	0x00007325
    4fec:	00000a0d 	.word	0x00000a0d

00004ff0 <prefix_process>:
    4ff0:	b538      	push	{r3, r4, r5, lr}
    4ff2:	4604      	mov	r4, r0
    4ff4:	460d      	mov	r5, r1
    4ff6:	88e3      	ldrh	r3, [r4, #6]
    4ff8:	2b00      	cmp	r3, #0
    4ffa:	d006      	beq.n	500a <prefix_process+0x1a>
    4ffc:	a015      	add	r0, pc, #84	; (adr r0, 5054 <prefix_process+0x64>)
    4ffe:	9000      	str	r0, [sp, #0]
    5000:	a216      	add	r2, pc, #88	; (adr r2, 505c <prefix_process+0x6c>)
    5002:	a118      	add	r1, pc, #96	; (adr r1, 5064 <prefix_process+0x74>)
    5004:	4628      	mov	r0, r5
    5006:	f7fe ffff 	bl	4008 <nrf_fprintf>
    500a:	7a21      	ldrb	r1, [r4, #8]
    500c:	2905      	cmp	r1, #5
    500e:	d020      	beq.n	5052 <prefix_process+0x62>
    5010:	7a60      	ldrb	r0, [r4, #9]
    5012:	b148      	cbz	r0, 5028 <prefix_process+0x38>
    5014:	88a0      	ldrh	r0, [r4, #4]
    5016:	f7ff fa61 	bl	44dc <nrf_log_color_id_get>
    501a:	4918      	ldr	r1, [pc, #96]	; (507c <prefix_process+0x8c>)
    501c:	f851 2020 	ldr.w	r2, [r1, r0, lsl #2]
    5020:	a117      	add	r1, pc, #92	; (adr r1, 5080 <prefix_process+0x90>)
    5022:	4628      	mov	r0, r5
    5024:	f7fe fff0 	bl	4008 <nrf_fprintf>
    5028:	4628      	mov	r0, r5
    502a:	6821      	ldr	r1, [r4, #0]
    502c:	f000 fdb0 	bl	5b90 <timestamp_print>
    5030:	88a0      	ldrh	r0, [r4, #4]
    5032:	2100      	movs	r1, #0
    5034:	f7ff fc2c 	bl	4890 <nrf_log_module_name_get>
    5038:	4603      	mov	r3, r0
    503a:	4910      	ldr	r1, [pc, #64]	; (507c <prefix_process+0x8c>)
    503c:	7a20      	ldrb	r0, [r4, #8]
    503e:	3914      	subs	r1, #20
    5040:	f851 2020 	ldr.w	r2, [r1, r0, lsl #2]
    5044:	b001      	add	sp, #4
    5046:	4628      	mov	r0, r5
    5048:	e8bd 4030 	ldmia.w	sp!, {r4, r5, lr}
    504c:	a10d      	add	r1, pc, #52	; (adr r1, 5084 <prefix_process+0x94>)
    504e:	f7fe bfdb 	b.w	4008 <nrf_fprintf>
    5052:	bd38      	pop	{r3, r4, r5, pc}
    5054:	6d305b1b 	.word	0x6d305b1b
    5058:	00000000 	.word	0x00000000
    505c:	3b315b1b 	.word	0x3b315b1b
    5060:	006d3133 	.word	0x006d3133
    5064:	6f4c7325 	.word	0x6f4c7325
    5068:	64207367 	.word	0x64207367
    506c:	70706f72 	.word	0x70706f72
    5070:	28206465 	.word	0x28206465
    5074:	25296425 	.word	0x25296425
    5078:	000a0d73 	.word	0x000a0d73
    507c:	20000074 	.word	0x20000074
    5080:	00007325 	.word	0x00007325
    5084:	3e73253c 	.word	0x3e73253c
    5088:	3a732520 	.word	0x3a732520
    508c:	00000020 	.word	0x00000020

00005090 <profile_add_event>:
    5090:	b530      	push	{r4, r5, lr}
    5092:	4604      	mov	r4, r0
    5094:	4912      	ldr	r1, [pc, #72]	; (50e0 <profile_add_event+0x50>)
    5096:	2300      	movs	r3, #0
    5098:	f8d1 0090 	ldr.w	r0, [r1, #144]	; 0x90
    509c:	2800      	cmp	r0, #0
    509e:	d10d      	bne.n	50bc <profile_add_event+0x2c>
    50a0:	4a10      	ldr	r2, [pc, #64]	; (50e4 <profile_add_event+0x54>)
    50a2:	2540      	movs	r5, #64	; 0x40
    50a4:	6015      	str	r5, [r2, #0]
    50a6:	4a10      	ldr	r2, [pc, #64]	; (50e8 <profile_add_event+0x58>)
    50a8:	6815      	ldr	r5, [r2, #0]
    50aa:	f045 7580 	orr.w	r5, r5, #16777216	; 0x1000000
    50ae:	6015      	str	r5, [r2, #0]
    50b0:	4a0e      	ldr	r2, [pc, #56]	; (50ec <profile_add_event+0x5c>)
    50b2:	6053      	str	r3, [r2, #4]
    50b4:	6815      	ldr	r5, [r2, #0]
    50b6:	f045 0501 	orr.w	r5, r5, #1
    50ba:	6015      	str	r5, [r2, #0]
    50bc:	280c      	cmp	r0, #12
    50be:	db01      	blt.n	50c4 <profile_add_event+0x34>
    50c0:	f8c1 3090 	str.w	r3, [r1, #144]	; 0x90
    50c4:	f8d1 0090 	ldr.w	r0, [r1, #144]	; 0x90
    50c8:	eb01 0280 	add.w	r2, r1, r0, lsl #2
    50cc:	6614      	str	r4, [r2, #96]	; 0x60
    50ce:	6313      	str	r3, [r2, #48]	; 0x30
    50d0:	f841 3020 	str.w	r3, [r1, r0, lsl #2]
    50d4:	f851 2f90 	ldr.w	r2, [r1, #144]!
    50d8:	1c52      	adds	r2, r2, #1
    50da:	600a      	str	r2, [r1, #0]
    50dc:	bd30      	pop	{r4, r5, pc}
    50de:	0000      	.short	0x0000
    50e0:	20001090 	.word	0x20001090
    50e4:	200000e0 	.word	0x200000e0
    50e8:	e000edfc 	.word	0xe000edfc
    50ec:	e0001000 	.word	0xe0001000

000050f0 <profile_dump>:
    50f0:	b510      	push	{r4, lr}
    50f2:	4604      	mov	r4, r0
    50f4:	4808      	ldr	r0, [pc, #32]	; (5118 <profile_dump+0x28>)
    50f6:	eb00 0184 	add.w	r1, r0, r4, lsl #2
    50fa:	f850 0024 	ldr.w	r0, [r0, r4, lsl #2]
    50fe:	6b09      	ldr	r1, [r1, #48]	; 0x30
    5100:	1a0a      	subs	r2, r1, r0
    5102:	4610      	mov	r0, r2
    5104:	f7fc ff9c 	bl	2040 <cycles_to_us>
    5108:	4603      	mov	r3, r0
    510a:	4621      	mov	r1, r4
    510c:	e8bd 4010 	ldmia.w	sp!, {r4, lr}
    5110:	a002      	add	r0, pc, #8	; (adr r0, 511c <profile_dump+0x2c>)
    5112:	f7fc bfb8 	b.w	2086 <debug_log>
    5116:	0000      	.short	0x0000
    5118:	20001090 	.word	0x20001090
    511c:	6e657645 	.word	0x6e657645
    5120:	64252074 	.word	0x64252074
    5124:	203e2d20 	.word	0x203e2d20
    5128:	6c637963 	.word	0x6c637963
    512c:	25203a65 	.word	0x25203a65
    5130:	69742075 	.word	0x69742075
    5134:	7528656d 	.word	0x7528656d
    5138:	203a2973 	.word	0x203a2973
    513c:	000a7525 	.word	0x000a7525

00005140 <profile_end>:
    5140:	4904      	ldr	r1, [pc, #16]	; (5154 <profile_end+0x14>)
    5142:	6849      	ldr	r1, [r1, #4]
    5144:	4a04      	ldr	r2, [pc, #16]	; (5158 <profile_end+0x18>)
    5146:	eb02 0380 	add.w	r3, r2, r0, lsl #2
    514a:	6319      	str	r1, [r3, #48]	; 0x30
    514c:	f852 0020 	ldr.w	r0, [r2, r0, lsl #2]
    5150:	1a08      	subs	r0, r1, r0
    5152:	4770      	bx	lr
    5154:	e0001000 	.word	0xe0001000
    5158:	20001090 	.word	0x20001090

0000515c <profile_start>:
    515c:	4902      	ldr	r1, [pc, #8]	; (5168 <profile_start+0xc>)
    515e:	6849      	ldr	r1, [r1, #4]
    5160:	4a02      	ldr	r2, [pc, #8]	; (516c <profile_start+0x10>)
    5162:	f842 1020 	str.w	r1, [r2, r0, lsl #2]
    5166:	4770      	bx	lr
    5168:	e0001000 	.word	0xe0001000
    516c:	20001090 	.word	0x20001090

00005170 <prs_box_get>:
    5170:	4903      	ldr	r1, [pc, #12]	; (5180 <prs_box_get+0x10>)
    5172:	4288      	cmp	r0, r1
    5174:	d101      	bne.n	517a <prs_box_get+0xa>
    5176:	4803      	ldr	r0, [pc, #12]	; (5184 <prs_box_get+0x14>)
    5178:	4770      	bx	lr
    517a:	2000      	movs	r0, #0
    517c:	4770      	bx	lr
    517e:	0000      	.short	0x0000
    5180:	40002000 	.word	0x40002000
    5184:	20000014 	.word	0x20000014

00005188 <read_local_patch>:
    5188:	b570      	push	{r4, r5, r6, lr}
    518a:	4604      	mov	r4, r0
    518c:	2504      	movs	r5, #4
    518e:	2c04      	cmp	r4, #4
    5190:	dd07      	ble.n	51a2 <read_local_patch+0x1a>
    5192:	f000 fbdb 	bl	594c <show_local_patch_desc>
    5196:	4629      	mov	r1, r5
    5198:	a01c      	add	r0, pc, #112	; (adr r0, 520c <read_local_patch+0x84>)
    519a:	f7fc ff74 	bl	2086 <debug_log>
    519e:	2000      	movs	r0, #0
    51a0:	bd70      	pop	{r4, r5, r6, pc}
    51a2:	4e20      	ldr	r6, [pc, #128]	; (5224 <read_local_patch+0x9c>)
    51a4:	7830      	ldrb	r0, [r6, #0]
    51a6:	b968      	cbnz	r0, 51c4 <read_local_patch+0x3c>
    51a8:	2108      	movs	r1, #8
    51aa:	2001      	movs	r0, #1
    51ac:	f7fc ffd6 	bl	215c <ebpf_calloc>
    51b0:	6070      	str	r0, [r6, #4]
    51b2:	210c      	movs	r1, #12
    51b4:	2001      	movs	r0, #1
    51b6:	f7fc ffd1 	bl	215c <ebpf_calloc>
    51ba:	60b0      	str	r0, [r6, #8]
    51bc:	2001      	movs	r0, #1
    51be:	7030      	strb	r0, [r6, #0]
    51c0:	f7fe fa4a 	bl	3658 <init_patch_sys>
    51c4:	4817      	ldr	r0, [pc, #92]	; (5224 <read_local_patch+0x9c>)
    51c6:	300c      	adds	r0, #12
    51c8:	eb00 1404 	add.w	r4, r0, r4, lsl #4
    51cc:	6870      	ldr	r0, [r6, #4]
    51ce:	2102      	movs	r1, #2
    51d0:	8001      	strh	r1, [r0, #0]
    51d2:	2100      	movs	r1, #0
    51d4:	8041      	strh	r1, [r0, #2]
    51d6:	6861      	ldr	r1, [r4, #4]
    51d8:	6041      	str	r1, [r0, #4]
    51da:	68b1      	ldr	r1, [r6, #8]
    51dc:	6008      	str	r0, [r1, #0]
    51de:	684d      	ldr	r5, [r1, #4]
    51e0:	b925      	cbnz	r5, 51ec <read_local_patch+0x64>
    51e2:	e9d4 0102 	ldrd	r0, r1, [r4, #8]
    51e6:	f7fe fa27 	bl	3638 <init_ebpf_vm>
    51ea:	4605      	mov	r5, r0
    51ec:	e9d4 1202 	ldrd	r1, r2, [r4, #8]
    51f0:	4628      	mov	r0, r5
    51f2:	f7fe f807 	bl	3204 <ebpf_vm_set_inst>
    51f6:	68b0      	ldr	r0, [r6, #8]
    51f8:	6045      	str	r5, [r0, #4]
    51fa:	f7fe fc69 	bl	3ad0 <load_local_patch_to_ctx>
    51fe:	a00a      	add	r0, pc, #40	; (adr r0, 5228 <read_local_patch+0xa0>)
    5200:	6821      	ldr	r1, [r4, #0]
    5202:	f7fc ff40 	bl	2086 <debug_log>
    5206:	68b0      	ldr	r0, [r6, #8]
    5208:	bd70      	pop	{r4, r5, r6, pc}
    520a:	0000      	.short	0x0000
    520c:	63746170 	.word	0x63746170
    5210:	64692068 	.word	0x64692068
    5214:	73656c20 	.word	0x73656c20
    5218:	68742073 	.word	0x68742073
    521c:	25206e61 	.word	0x25206e61
    5220:	00000a64 	.word	0x00000a64
    5224:	200003b0 	.word	0x200003b0
    5228:	64616f6c 	.word	0x64616f6c
    522c:	74617020 	.word	0x74617020
    5230:	25206863 	.word	0x25206863
    5234:	75732073 	.word	0x75732073
    5238:	73656363 	.word	0x73656363
    523c:	000a2173 	.word	0x000a2173

00005240 <reset_patch>:
    5240:	b510      	push	{r4, lr}
    5242:	f000 fb1b 	bl	587c <show_hw_bkpt>
    5246:	e8bd 4010 	ldmia.w	sp!, {r4, lr}
    524a:	f7fc bebd 	b.w	1fc8 <clear_all_hw_bkpt>

0000524e <run_ebpf_filter>:
    524e:	6840      	ldr	r0, [r0, #4]
    5250:	f7fc bf88 	b.w	2164 <ebpf_vm_exec>

00005254 <run_ebpf_test>:
    5254:	a001      	add	r0, pc, #4	; (adr r0, 525c <run_ebpf_test+0x8>)
    5256:	f7fc bf16 	b.w	2086 <debug_log>
    525a:	0000      	.short	0x0000
    525c:	5f6e7572 	.word	0x5f6e7572
    5260:	66706265 	.word	0x66706265
    5264:	7365745f 	.word	0x7365745f
    5268:	3e3e2074 	.word	0x3e3e2074
    526c:	3e3e3e3e 	.word	0x3e3e3e3e
    5270:	00000a20 	.word	0x00000a20

00005274 <run_patch_here>:
    5274:	b570      	push	{r4, r5, r6, lr}
    5276:	4604      	mov	r4, r0
    5278:	69a0      	ldr	r0, [r4, #24]
    527a:	f7fe f953 	bl	3524 <get_dynamic_patch_by_bpkt>
    527e:	2800      	cmp	r0, #0
    5280:	d02d      	beq.n	52de <run_patch_here+0x6a>
    5282:	4621      	mov	r1, r4
    5284:	2210      	movs	r2, #16
    5286:	f7ff ffe2 	bl	524e <run_ebpf_filter>
    528a:	460e      	mov	r6, r1
    528c:	4605      	mov	r5, r0
    528e:	462a      	mov	r2, r5
    5290:	4631      	mov	r1, r6
    5292:	a016      	add	r0, pc, #88	; (adr r0, 52ec <run_patch_here+0x78>)
    5294:	f7fc fef7 	bl	2086 <debug_log>
    5298:	2e01      	cmp	r6, #1
    529a:	d008      	beq.n	52ae <run_patch_here+0x3a>
    529c:	2e02      	cmp	r6, #2
    529e:	d017      	beq.n	52d0 <run_patch_here+0x5c>
    52a0:	69a2      	ldr	r2, [r4, #24]
    52a2:	4631      	mov	r1, r6
    52a4:	4818      	ldr	r0, [pc, #96]	; (5308 <run_patch_here+0x94>)
    52a6:	f7fc feee 	bl	2086 <debug_log>
    52aa:	2000      	movs	r0, #0
    52ac:	bd70      	pop	{r4, r5, r6, pc}
    52ae:	69a3      	ldr	r3, [r4, #24]
    52b0:	6962      	ldr	r2, [r4, #20]
    52b2:	4629      	mov	r1, r5
    52b4:	a015      	add	r0, pc, #84	; (adr r0, 530c <run_patch_here+0x98>)
    52b6:	f7fc fee6 	bl	2086 <debug_log>
    52ba:	6025      	str	r5, [r4, #0]
    52bc:	6960      	ldr	r0, [r4, #20]
    52be:	f7fc fe41 	bl	1f44 <calc_bpkt_addr>
    52c2:	61a0      	str	r0, [r4, #24]
    52c4:	69a1      	ldr	r1, [r4, #24]
    52c6:	a01b      	add	r0, pc, #108	; (adr r0, 5334 <run_patch_here+0xc0>)
    52c8:	f7fc fedd 	bl	2086 <debug_log>
    52cc:	2001      	movs	r0, #1
    52ce:	bd70      	pop	{r4, r5, r6, pc}
    52d0:	61a5      	str	r5, [r4, #24]
    52d2:	69a1      	ldr	r1, [r4, #24]
    52d4:	a017      	add	r0, pc, #92	; (adr r0, 5334 <run_patch_here+0xc0>)
    52d6:	f7fc fed6 	bl	2086 <debug_log>
    52da:	2001      	movs	r0, #1
    52dc:	bd70      	pop	{r4, r5, r6, pc}
    52de:	69a1      	ldr	r1, [r4, #24]
    52e0:	a019      	add	r0, pc, #100	; (adr r0, 5348 <run_patch_here+0xd4>)
    52e2:	f7fc fed0 	bl	2086 <debug_log>
    52e6:	2000      	movs	r0, #0
    52e8:	bd70      	pop	{r4, r5, r6, pc}
    52ea:	0000      	.short	0x0000
    52ec:	5f6e7572 	.word	0x5f6e7572
    52f0:	66706265 	.word	0x66706265
    52f4:	6c69665f 	.word	0x6c69665f
    52f8:	20726574 	.word	0x20726574
    52fc:	3a736572 	.word	0x3a736572
    5300:	20752520 	.word	0x20752520
    5304:	000a7525 	.word	0x000a7525
    5308:	00006334 	.word	0x00006334
    530c:	746c6966 	.word	0x746c6966
    5310:	61207265 	.word	0x61207265
    5314:	7220646e 	.word	0x7220646e
    5318:	72757465 	.word	0x72757465
    531c:	25203a6e 	.word	0x25203a6e
    5320:	78302075 	.word	0x78302075
    5324:	78383025 	.word	0x78383025
    5328:	25783020 	.word	0x25783020
    532c:	0a783830 	.word	0x0a783830
    5330:	00000000 	.word	0x00000000
    5334:	5f746573 	.word	0x5f746573
    5338:	75746572 	.word	0x75746572
    533c:	203a6e72 	.word	0x203a6e72
    5340:	30257830 	.word	0x30257830
    5344:	000a7838 	.word	0x000a7838
    5348:	6e206f64 	.word	0x6e206f64
    534c:	6620746f 	.word	0x6620746f
    5350:	20646e69 	.word	0x20646e69
    5354:	63746170 	.word	0x63746170
    5358:	6f662068 	.word	0x6f662068
    535c:	63702072 	.word	0x63702072
    5360:	64646120 	.word	0x64646120
    5364:	30203a72 	.word	0x30203a72
    5368:	38302578 	.word	0x38302578
    536c:	000a2078 	.word	0x000a2078

00005370 <run_shell_cli>:
    5370:	b510      	push	{r4, lr}
    5372:	2184      	movs	r1, #132	; 0x84
    5374:	4809      	ldr	r0, [pc, #36]	; (539c <run_shell_cli+0x2c>)
    5376:	f7fb f8c8 	bl	50a <__aeabi_memclr>
    537a:	f7fc fe41 	bl	2000 <cli_print_help>
    537e:	a008      	add	r0, pc, #32	; (adr r0, 53a0 <run_shell_cli+0x30>)
    5380:	f000 f9c5 	bl	570e <shell_echo_str>
    5384:	4c07      	ldr	r4, [pc, #28]	; (53a4 <run_shell_cli+0x34>)
    5386:	2000      	movs	r0, #0
    5388:	7020      	strb	r0, [r4, #0]
    538a:	f000 f9ca 	bl	5722 <shell_get_char>
    538e:	f000 fa23 	bl	57d8 <shell_receive_char>
    5392:	7820      	ldrb	r0, [r4, #0]
    5394:	2800      	cmp	r0, #0
    5396:	d0f8      	beq.n	538a <run_shell_cli+0x1a>
    5398:	bd10      	pop	{r4, pc}
    539a:	0000      	.short	0x0000
    539c:	20000ebc 	.word	0x20000ebc
    53a0:	00002024 	.word	0x00002024
    53a4:	20000098 	.word	0x20000098

000053a8 <run_test_by_id>:
    53a8:	b510      	push	{r4, lr}
    53aa:	2805      	cmp	r0, #5
    53ac:	dd07      	ble.n	53be <run_test_by_id+0x16>
    53ae:	4601      	mov	r1, r0
    53b0:	a00e      	add	r0, pc, #56	; (adr r0, 53ec <run_test_by_id+0x44>)
    53b2:	f000 f9bf 	bl	5734 <shell_printf>
    53b6:	e8bd 4010 	ldmia.w	sp!, {r4, lr}
    53ba:	f7fc be21 	b.w	2000 <cli_print_help>
    53be:	4911      	ldr	r1, [pc, #68]	; (5404 <run_test_by_id+0x5c>)
    53c0:	eb00 0040 	add.w	r0, r0, r0, lsl #1
    53c4:	eb01 0480 	add.w	r4, r1, r0, lsl #2
    53c8:	6860      	ldr	r0, [r4, #4]
    53ca:	b140      	cbz	r0, 53de <run_test_by_id+0x36>
    53cc:	a00e      	add	r0, pc, #56	; (adr r0, 5408 <run_test_by_id+0x60>)
    53ce:	68a2      	ldr	r2, [r4, #8]
    53d0:	6821      	ldr	r1, [r4, #0]
    53d2:	f000 f9af 	bl	5734 <shell_printf>
    53d6:	6860      	ldr	r0, [r4, #4]
    53d8:	e8bd 4010 	ldmia.w	sp!, {r4, lr}
    53dc:	4700      	bx	r0
    53de:	68a2      	ldr	r2, [r4, #8]
    53e0:	6821      	ldr	r1, [r4, #0]
    53e2:	e8bd 4010 	ldmia.w	sp!, {r4, lr}
    53e6:	a00d      	add	r0, pc, #52	; (adr r0, 541c <run_test_by_id+0x74>)
    53e8:	f000 b9a4 	b.w	5734 <shell_printf>
    53ec:	75736e55 	.word	0x75736e55
    53f0:	726f7070 	.word	0x726f7070
    53f4:	6f632074 	.word	0x6f632074
    53f8:	6e616d6d 	.word	0x6e616d6d
    53fc:	25203a64 	.word	0x25203a64
    5400:	00000a64 	.word	0x00000a64
    5404:	200000a0 	.word	0x200000a0
    5408:	206e7572 	.word	0x206e7572
    540c:	3a646d63 	.word	0x3a646d63
    5410:	20642520 	.word	0x20642520
    5414:	7d73257b 	.word	0x7d73257b
    5418:	0000000a 	.word	0x0000000a
    541c:	3a646d63 	.word	0x3a646d63
    5420:	7b206425 	.word	0x7b206425
    5424:	207d7325 	.word	0x207d7325
    5428:	6e207369 	.word	0x6e207369
    542c:	6920746f 	.word	0x6920746f
    5430:	656c706d 	.word	0x656c706d
    5434:	746e656d 	.word	0x746e656d
    5438:	0000000a 	.word	0x0000000a

0000543c <rx_byte>:
    543c:	b570      	push	{r4, r5, r6, lr}
    543e:	4605      	mov	r5, r0
    5440:	460c      	mov	r4, r1
    5442:	f44f 7184 	mov.w	r1, #264	; 0x108
    5446:	69a0      	ldr	r0, [r4, #24]
    5448:	2800      	cmp	r0, #0
    544a:	d00b      	beq.n	5464 <rx_byte+0x28>
    544c:	4628      	mov	r0, r5
    544e:	f7ff fb24 	bl	4a9a <nrf_uart_event_clear>
    5452:	f8d5 0518 	ldr.w	r0, [r5, #1304]	; 0x518
    5456:	6a62      	ldr	r2, [r4, #36]	; 0x24
    5458:	68e1      	ldr	r1, [r4, #12]
    545a:	5488      	strb	r0, [r1, r2]
    545c:	6a60      	ldr	r0, [r4, #36]	; 0x24
    545e:	1c40      	adds	r0, r0, #1
    5460:	6260      	str	r0, [r4, #36]	; 0x24
    5462:	bd70      	pop	{r4, r5, r6, pc}
    5464:	4628      	mov	r0, r5
    5466:	f7ff fb18 	bl	4a9a <nrf_uart_event_clear>
    546a:	f8d5 0518 	ldr.w	r0, [r5, #1304]	; 0x518
    546e:	bd70      	pop	{r4, r5, r6, pc}

00005470 <rx_done_event>:
    5470:	b51f      	push	{r0, r1, r2, r3, r4, lr}
    5472:	2301      	movs	r3, #1
    5474:	f88d 3000 	strb.w	r3, [sp]
    5478:	9102      	str	r1, [sp, #8]
    547a:	9201      	str	r2, [sp, #4]
    547c:	c806      	ldmia	r0!, {r1, r2}
    547e:	4668      	mov	r0, sp
    5480:	4790      	blx	r2
    5482:	bd1f      	pop	{r0, r1, r2, r3, r4, pc}

00005484 <rx_done_event>:
    5484:	b51f      	push	{r0, r1, r2, r3, r4, lr}
    5486:	2301      	movs	r3, #1
    5488:	f88d 3000 	strb.w	r3, [sp]
    548c:	9102      	str	r1, [sp, #8]
    548e:	9201      	str	r2, [sp, #4]
    5490:	c806      	ldmia	r0!, {r1, r2}
    5492:	4668      	mov	r0, sp
    5494:	4790      	blx	r2
    5496:	bd1f      	pop	{r0, r1, r2, r3, r4, pc}

00005498 <rx_enable>:
    5498:	b510      	push	{r4, lr}
    549a:	4604      	mov	r4, r0
    549c:	f44f 7192 	mov.w	r1, #292	; 0x124
    54a0:	6820      	ldr	r0, [r4, #0]
    54a2:	f7ff fafa 	bl	4a9a <nrf_uart_event_clear>
    54a6:	f44f 7184 	mov.w	r1, #264	; 0x108
    54aa:	6820      	ldr	r0, [r4, #0]
    54ac:	f7ff faf5 	bl	4a9a <nrf_uart_event_clear>
    54b0:	6820      	ldr	r0, [r4, #0]
    54b2:	2101      	movs	r1, #1
    54b4:	6001      	str	r1, [r0, #0]
    54b6:	bd10      	pop	{r4, pc}

000054b8 <serial_tx>:
    54b8:	e92d 5ff0 	stmdb	sp!, {r4, r5, r6, r7, r8, r9, sl, fp, ip, lr}
    54bc:	468a      	mov	sl, r1
    54be:	4615      	mov	r5, r2
    54c0:	2d00      	cmp	r5, #0
    54c2:	d022      	beq.n	550a <serial_tx+0x52>
    54c4:	2600      	movs	r6, #0
    54c6:	2703      	movs	r7, #3
    54c8:	f8df 904c 	ldr.w	r9, [pc, #76]	; 5518 <serial_tx+0x60>
    54cc:	eb0a 0106 	add.w	r1, sl, r6
    54d0:	462a      	mov	r2, r5
    54d2:	2000      	movs	r0, #0
    54d4:	f7fb fad8 	bl	a88 <SEGGER_RTT_WriteNoLock>
    54d8:	4406      	add	r6, r0
    54da:	1a2d      	subs	r5, r5, r0
    54dc:	b980      	cbnz	r0, 5500 <serial_tx+0x48>
    54de:	f899 0000 	ldrb.w	r0, [r9]
    54e2:	2800      	cmp	r0, #0
    54e4:	d011      	beq.n	550a <serial_tx+0x52>
    54e6:	2401      	movs	r4, #1
    54e8:	f8df 8030 	ldr.w	r8, [pc, #48]	; 551c <serial_tx+0x64>
    54ec:	f44f 4b7a 	mov.w	fp, #64000	; 0xfa00
    54f0:	f108 0101 	add.w	r1, r8, #1
    54f4:	4658      	mov	r0, fp
    54f6:	4788      	blx	r1
    54f8:	1e64      	subs	r4, r4, #1
    54fa:	d1f9      	bne.n	54f0 <serial_tx+0x38>
    54fc:	1e7f      	subs	r7, r7, #1
    54fe:	b137      	cbz	r7, 550e <serial_tx+0x56>
    5500:	2001      	movs	r0, #1
    5502:	f889 0000 	strb.w	r0, [r9]
    5506:	2d00      	cmp	r5, #0
    5508:	d1e0      	bne.n	54cc <serial_tx+0x14>
    550a:	e8bd 9ff0 	ldmia.w	sp!, {r4, r5, r6, r7, r8, r9, sl, fp, ip, pc}
    550e:	2000      	movs	r0, #0
    5510:	f889 0000 	strb.w	r0, [r9]
    5514:	e7f9      	b.n	550a <serial_tx+0x52>
    5516:	0000      	.short	0x0000
    5518:	2000003c 	.word	0x2000003c
    551c:	00006160 	.word	0x00006160

00005520 <set_patch_mode>:
    5520:	b510      	push	{r4, lr}
    5522:	4604      	mov	r4, r0
    5524:	212c      	movs	r1, #44	; 0x2c
    5526:	480b      	ldr	r0, [pc, #44]	; (5554 <set_patch_mode+0x34>)
    5528:	f7fa ffef 	bl	50a <__aeabi_memclr>
    552c:	4909      	ldr	r1, [pc, #36]	; (5554 <set_patch_mode+0x34>)
    552e:	2000      	movs	r0, #0
    5530:	f881 0028 	strb.w	r0, [r1, #40]	; 0x28
    5534:	b12c      	cbz	r4, 5542 <set_patch_mode+0x22>
    5536:	2c01      	cmp	r4, #1
    5538:	d10b      	bne.n	5552 <set_patch_mode+0x32>
    553a:	e8bd 4010 	ldmia.w	sp!, {r4, lr}
    553e:	f7fc bdad 	b.w	209c <debug_monitor_init>
    5542:	4804      	ldr	r0, [pc, #16]	; (5554 <set_patch_mode+0x34>)
    5544:	301f      	adds	r0, #31
    5546:	f020 001f 	bic.w	r0, r0, #31
    554a:	e8bd 4010 	ldmia.w	sp!, {r4, lr}
    554e:	f7fd bf69 	b.w	3424 <fpb_remap_init>
    5552:	bd10      	pop	{r4, pc}
    5554:	20001064 	.word	0x20001064

00005558 <setup_cve_list>:
    5558:	4902      	ldr	r1, [pc, #8]	; (5564 <setup_cve_list+0xc>)
    555a:	4801      	ldr	r0, [pc, #4]	; (5560 <setup_cve_list+0x8>)
    555c:	6048      	str	r0, [r1, #4]
    555e:	4770      	bx	lr
    5560:	00005af1 	.word	0x00005af1
    5564:	200003bc 	.word	0x200003bc

00005568 <shell_dispatch_cmd>:
    5568:	b570      	push	{r4, r5, r6, lr}
    556a:	4604      	mov	r4, r0
    556c:	460d      	mov	r5, r1
    556e:	a138      	add	r1, pc, #224	; (adr r1, 5650 <shell_dispatch_cmd+0xe8>)
    5570:	6820      	ldr	r0, [r4, #0]
    5572:	f7fa ffdc 	bl	52e <strcmp>
    5576:	2800      	cmp	r0, #0
    5578:	d027      	beq.n	55ca <shell_dispatch_cmd+0x62>
    557a:	a136      	add	r1, pc, #216	; (adr r1, 5654 <shell_dispatch_cmd+0xec>)
    557c:	6820      	ldr	r0, [r4, #0]
    557e:	f7fa ffd6 	bl	52e <strcmp>
    5582:	2800      	cmp	r0, #0
    5584:	d029      	beq.n	55da <shell_dispatch_cmd+0x72>
    5586:	a134      	add	r1, pc, #208	; (adr r1, 5658 <shell_dispatch_cmd+0xf0>)
    5588:	6820      	ldr	r0, [r4, #0]
    558a:	f7fa ffd0 	bl	52e <strcmp>
    558e:	2800      	cmp	r0, #0
    5590:	d023      	beq.n	55da <shell_dispatch_cmd+0x72>
    5592:	a133      	add	r1, pc, #204	; (adr r1, 5660 <shell_dispatch_cmd+0xf8>)
    5594:	6820      	ldr	r0, [r4, #0]
    5596:	f7fa ffca 	bl	52e <strcmp>
    559a:	b310      	cbz	r0, 55e2 <shell_dispatch_cmd+0x7a>
    559c:	a131      	add	r1, pc, #196	; (adr r1, 5664 <shell_dispatch_cmd+0xfc>)
    559e:	6820      	ldr	r0, [r4, #0]
    55a0:	f7fa ffc5 	bl	52e <strcmp>
    55a4:	b338      	cbz	r0, 55f6 <shell_dispatch_cmd+0x8e>
    55a6:	a131      	add	r1, pc, #196	; (adr r1, 566c <shell_dispatch_cmd+0x104>)
    55a8:	6820      	ldr	r0, [r4, #0]
    55aa:	f7fa ffc0 	bl	52e <strcmp>
    55ae:	b380      	cbz	r0, 5612 <shell_dispatch_cmd+0xaa>
    55b0:	a130      	add	r1, pc, #192	; (adr r1, 5674 <shell_dispatch_cmd+0x10c>)
    55b2:	6820      	ldr	r0, [r4, #0]
    55b4:	f7fa ffbb 	bl	52e <strcmp>
    55b8:	2800      	cmp	r0, #0
    55ba:	d03a      	beq.n	5632 <shell_dispatch_cmd+0xca>
    55bc:	462a      	mov	r2, r5
    55be:	6821      	ldr	r1, [r4, #0]
    55c0:	e8bd 4070 	ldmia.w	sp!, {r4, r5, r6, lr}
    55c4:	a02c      	add	r0, pc, #176	; (adr r0, 5678 <shell_dispatch_cmd+0x110>)
    55c6:	f7fc bd5e 	b.w	2086 <debug_log>
    55ca:	4933      	ldr	r1, [pc, #204]	; (5698 <shell_dispatch_cmd+0x130>)
    55cc:	2001      	movs	r0, #1
    55ce:	7008      	strb	r0, [r1, #0]
    55d0:	e8bd 4070 	ldmia.w	sp!, {r4, r5, r6, lr}
    55d4:	a031      	add	r0, pc, #196	; (adr r0, 569c <shell_dispatch_cmd+0x134>)
    55d6:	f7fc bd56 	b.w	2086 <debug_log>
    55da:	e8bd 4070 	ldmia.w	sp!, {r4, r5, r6, lr}
    55de:	f7fc bd0f 	b.w	2000 <cli_print_help>
    55e2:	2d02      	cmp	r5, #2
    55e4:	db33      	blt.n	564e <shell_dispatch_cmd+0xe6>
    55e6:	6860      	ldr	r0, [r4, #4]
    55e8:	f000 fa18 	bl	5a1c <str2int>
    55ec:	e8bd 4070 	ldmia.w	sp!, {r4, r5, r6, lr}
    55f0:	b2c0      	uxtb	r0, r0
    55f2:	f7ff bed9 	b.w	53a8 <run_test_by_id>
    55f6:	2d02      	cmp	r5, #2
    55f8:	db06      	blt.n	5608 <shell_dispatch_cmd+0xa0>
    55fa:	6860      	ldr	r0, [r4, #4]
    55fc:	f000 fa0e 	bl	5a1c <str2int>
    5600:	e8bd 4070 	ldmia.w	sp!, {r4, r5, r6, lr}
    5604:	f7fd bff4 	b.w	35f0 <handle_trigger_func>
    5608:	e8bd 4070 	ldmia.w	sp!, {r4, r5, r6, lr}
    560c:	a028      	add	r0, pc, #160	; (adr r0, 56b0 <shell_dispatch_cmd+0x148>)
    560e:	f000 b891 	b.w	5734 <shell_printf>
    5612:	2d02      	cmp	r5, #2
    5614:	db06      	blt.n	5624 <shell_dispatch_cmd+0xbc>
    5616:	6860      	ldr	r0, [r4, #4]
    5618:	f000 fa00 	bl	5a1c <str2int>
    561c:	e8bd 4070 	ldmia.w	sp!, {r4, r5, r6, lr}
    5620:	f7fd bfd6 	b.w	35d0 <handle_patch_func>
    5624:	a028      	add	r0, pc, #160	; (adr r0, 56c8 <shell_dispatch_cmd+0x160>)
    5626:	f000 f885 	bl	5734 <shell_printf>
    562a:	e8bd 4070 	ldmia.w	sp!, {r4, r5, r6, lr}
    562e:	f000 b98d 	b.w	594c <show_local_patch_desc>
    5632:	2d02      	cmp	r5, #2
    5634:	db06      	blt.n	5644 <shell_dispatch_cmd+0xdc>
    5636:	6860      	ldr	r0, [r4, #4]
    5638:	f000 f9f0 	bl	5a1c <str2int>
    563c:	e8bd 4070 	ldmia.w	sp!, {r4, r5, r6, lr}
    5640:	f7fd bfc4 	b.w	35cc <handle_eBPF_vm_run_patch>
    5644:	e8bd 4070 	ldmia.w	sp!, {r4, r5, r6, lr}
    5648:	a024      	add	r0, pc, #144	; (adr r0, 56dc <shell_dispatch_cmd+0x174>)
    564a:	f000 b873 	b.w	5734 <shell_printf>
    564e:	bd70      	pop	{r4, r5, r6, pc}
    5650:	00000071 	.word	0x00000071
    5654:	00000068 	.word	0x00000068
    5658:	706c6568 	.word	0x706c6568
    565c:	00000000 	.word	0x00000000
    5660:	006e7572 	.word	0x006e7572
    5664:	67697274 	.word	0x67697274
    5668:	00726567 	.word	0x00726567
    566c:	63746170 	.word	0x63746170
    5670:	00000068 	.word	0x00000068
    5674:	00006d76 	.word	0x00006d76
    5678:	6d6d6f43 	.word	0x6d6d6f43
    567c:	20646e61 	.word	0x20646e61
    5680:	20746f6e 	.word	0x20746f6e
    5684:	646e6966 	.word	0x646e6966
    5688:	7325203a 	.word	0x7325203a
    568c:	67726120 	.word	0x67726120
    5690:	25203a63 	.word	0x25203a63
    5694:	00000a64 	.word	0x00000a64
    5698:	20000098 	.word	0x20000098
    569c:	74697845 	.word	0x74697845
    56a0:	65687320 	.word	0x65687320
    56a4:	6d206c6c 	.word	0x6d206c6c
    56a8:	2165646f 	.word	0x2165646f
    56ac:	0000000a 	.word	0x0000000a
    56b0:	67617355 	.word	0x67617355
    56b4:	74203a65 	.word	0x74203a65
    56b8:	67676972 	.word	0x67676972
    56bc:	5b207265 	.word	0x5b207265
    56c0:	5d657663 	.word	0x5d657663
    56c4:	0000000a 	.word	0x0000000a
    56c8:	67617355 	.word	0x67617355
    56cc:	70203a65 	.word	0x70203a65
    56d0:	68637461 	.word	0x68637461
    56d4:	76635b20 	.word	0x76635b20
    56d8:	000a5d65 	.word	0x000a5d65
    56dc:	67617355 	.word	0x67617355
    56e0:	76203a65 	.word	0x76203a65
    56e4:	635b206d 	.word	0x635b206d
    56e8:	0a5d6576 	.word	0x0a5d6576
    56ec:	00000000 	.word	0x00000000

000056f0 <shell_echo>:
    56f0:	b510      	push	{r4, lr}
    56f2:	280a      	cmp	r0, #10
    56f4:	d003      	beq.n	56fe <shell_echo+0xe>
    56f6:	e8bd 4010 	ldmia.w	sp!, {r4, lr}
    56fa:	f000 b865 	b.w	57c8 <shell_put_char>
    56fe:	200d      	movs	r0, #13
    5700:	f000 f862 	bl	57c8 <shell_put_char>
    5704:	e8bd 4010 	ldmia.w	sp!, {r4, lr}
    5708:	200a      	movs	r0, #10
    570a:	f000 b85d 	b.w	57c8 <shell_put_char>

0000570e <shell_echo_str>:
    570e:	b510      	push	{r4, lr}
    5710:	4604      	mov	r4, r0
    5712:	e002      	b.n	571a <shell_echo_str+0xc>
    5714:	f7ff ffec 	bl	56f0 <shell_echo>
    5718:	1c64      	adds	r4, r4, #1
    571a:	7820      	ldrb	r0, [r4, #0]
    571c:	2800      	cmp	r0, #0
    571e:	d1f9      	bne.n	5714 <shell_echo_str+0x6>
    5720:	bd10      	pop	{r4, pc}

00005722 <shell_get_char>:
    5722:	b508      	push	{r3, lr}
    5724:	4668      	mov	r0, sp
    5726:	f7fc f9f7 	bl	1b18 <app_uart_get>
    572a:	2800      	cmp	r0, #0
    572c:	d1fa      	bne.n	5724 <shell_get_char+0x2>
    572e:	f89d 0000 	ldrb.w	r0, [sp]
    5732:	bd08      	pop	{r3, pc}

00005734 <shell_printf>:
    5734:	b40f      	push	{r0, r1, r2, r3}
    5736:	b510      	push	{r4, lr}
    5738:	ab03      	add	r3, sp, #12
    573a:	21ff      	movs	r1, #255	; 0xff
    573c:	4804      	ldr	r0, [pc, #16]	; (5750 <shell_printf+0x1c>)
    573e:	9a02      	ldr	r2, [sp, #8]
    5740:	f7fb fb5a 	bl	df8 <__0vsnprintf>
    5744:	4802      	ldr	r0, [pc, #8]	; (5750 <shell_printf+0x1c>)
    5746:	f7ff ffe2 	bl	570e <shell_echo_str>
    574a:	bc10      	pop	{r4}
    574c:	f85d fb14 	ldr.w	pc, [sp], #20
    5750:	20000f40 	.word	0x20000f40

00005754 <shell_process>:
    5754:	b570      	push	{r4, r5, r6, lr}
    5756:	b086      	sub	sp, #24
    5758:	4e19      	ldr	r6, [pc, #100]	; (57c0 <shell_process+0x6c>)
    575a:	1cf0      	adds	r0, r6, #3
    575c:	6831      	ldr	r1, [r6, #0]
    575e:	5c08      	ldrb	r0, [r1, r0]
    5760:	280a      	cmp	r0, #10
    5762:	d12b      	bne.n	57bc <shell_process+0x68>
    5764:	2100      	movs	r1, #0
    5766:	2000      	movs	r0, #0
    5768:	2200      	movs	r2, #0
    576a:	e016      	b.n	579a <shell_process+0x46>
    576c:	18b3      	adds	r3, r6, r2
    576e:	1d1b      	adds	r3, r3, #4
    5770:	781c      	ldrb	r4, [r3, #0]
    5772:	2c0a      	cmp	r4, #10
    5774:	d004      	beq.n	5780 <shell_process+0x2c>
    5776:	2c20      	cmp	r4, #32
    5778:	d002      	beq.n	5780 <shell_process+0x2c>
    577a:	1e6d      	subs	r5, r5, #1
    577c:	4295      	cmp	r5, r2
    577e:	d109      	bne.n	5794 <shell_process+0x40>
    5780:	2400      	movs	r4, #0
    5782:	701c      	strb	r4, [r3, #0]
    5784:	b140      	cbz	r0, 5798 <shell_process+0x44>
    5786:	460b      	mov	r3, r1
    5788:	ac01      	add	r4, sp, #4
    578a:	1c49      	adds	r1, r1, #1
    578c:	f844 0023 	str.w	r0, [r4, r3, lsl #2]
    5790:	2000      	movs	r0, #0
    5792:	e001      	b.n	5798 <shell_process+0x44>
    5794:	b900      	cbnz	r0, 5798 <shell_process+0x44>
    5796:	4618      	mov	r0, r3
    5798:	1c52      	adds	r2, r2, #1
    579a:	6835      	ldr	r5, [r6, #0]
    579c:	4295      	cmp	r5, r2
    579e:	d901      	bls.n	57a4 <shell_process+0x50>
    57a0:	2905      	cmp	r1, #5
    57a2:	dbe3      	blt.n	576c <shell_process+0x18>
    57a4:	2900      	cmp	r1, #0
    57a6:	dd02      	ble.n	57ae <shell_process+0x5a>
    57a8:	a801      	add	r0, sp, #4
    57aa:	f7ff fedd 	bl	5568 <shell_dispatch_cmd>
    57ae:	2184      	movs	r1, #132	; 0x84
    57b0:	4803      	ldr	r0, [pc, #12]	; (57c0 <shell_process+0x6c>)
    57b2:	f7fa feaa 	bl	50a <__aeabi_memclr>
    57b6:	a003      	add	r0, pc, #12	; (adr r0, 57c4 <shell_process+0x70>)
    57b8:	f7ff ffa9 	bl	570e <shell_echo_str>
    57bc:	b006      	add	sp, #24
    57be:	bd70      	pop	{r4, r5, r6, pc}
    57c0:	20000ebc 	.word	0x20000ebc
    57c4:	00002024 	.word	0x00002024

000057c8 <shell_put_char>:
    57c8:	b510      	push	{r4, lr}
    57ca:	4604      	mov	r4, r0
    57cc:	4620      	mov	r0, r4
    57ce:	f7fc fa17 	bl	1c00 <app_uart_put>
    57d2:	2800      	cmp	r0, #0
    57d4:	d1fa      	bne.n	57cc <shell_put_char+0x4>
    57d6:	bd10      	pop	{r4, pc}

000057d8 <shell_receive_char>:
    57d8:	b510      	push	{r4, lr}
    57da:	4604      	mov	r4, r0
    57dc:	4620      	mov	r0, r4
    57de:	f7ff fff3 	bl	57c8 <shell_put_char>
    57e2:	2c0d      	cmp	r4, #13
    57e4:	d00b      	beq.n	57fe <shell_receive_char+0x26>
    57e6:	4806      	ldr	r0, [pc, #24]	; (5800 <shell_receive_char+0x28>)
    57e8:	6801      	ldr	r1, [r0, #0]
    57ea:	2980      	cmp	r1, #128	; 0x80
    57ec:	d207      	bcs.n	57fe <shell_receive_char+0x26>
    57ee:	1c4a      	adds	r2, r1, #1
    57f0:	6002      	str	r2, [r0, #0]
    57f2:	4408      	add	r0, r1
    57f4:	7104      	strb	r4, [r0, #4]
    57f6:	e8bd 4010 	ldmia.w	sp!, {r4, lr}
    57fa:	f7ff bfab 	b.w	5754 <shell_process>
    57fe:	bd10      	pop	{r4, pc}
    5800:	20000ebc 	.word	0x20000ebc

00005804 <show_all_patches>:
    5804:	b510      	push	{r4, lr}
    5806:	a008      	add	r0, pc, #32	; (adr r0, 5828 <show_all_patches+0x24>)
    5808:	f7fc fc3d 	bl	2086 <debug_log>
    580c:	480c      	ldr	r0, [pc, #48]	; (5840 <show_all_patches+0x3c>)
    580e:	6984      	ldr	r4, [r0, #24]
    5810:	e007      	b.n	5822 <show_all_patches+0x1e>
    5812:	6820      	ldr	r0, [r4, #0]
    5814:	e9d4 1202 	ldrd	r1, r2, [r4, #8]
    5818:	7a03      	ldrb	r3, [r0, #8]
    581a:	a00a      	add	r0, pc, #40	; (adr r0, 5844 <show_all_patches+0x40>)
    581c:	f7fc fc33 	bl	2086 <debug_log>
    5820:	6864      	ldr	r4, [r4, #4]
    5822:	2c00      	cmp	r4, #0
    5824:	d1f5      	bne.n	5812 <show_all_patches+0xe>
    5826:	bd10      	pop	{r4, pc}
    5828:	616e7944 	.word	0x616e7944
    582c:	2063696d 	.word	0x2063696d
    5830:	63746150 	.word	0x63746150
    5834:	694c2068 	.word	0x694c2068
    5838:	0a3a7473 	.word	0x0a3a7473
    583c:	00000000 	.word	0x00000000
    5840:	20001040 	.word	0x20001040
    5844:	6b707964 	.word	0x6b707964
    5848:	736e6920 	.word	0x736e6920
    584c:	64615f74 	.word	0x64615f74
    5850:	203a7264 	.word	0x203a7264
    5854:	30257830 	.word	0x30257830
    5858:	70207838 	.word	0x70207838
    585c:	64615f63 	.word	0x64615f63
    5860:	203a7264 	.word	0x203a7264
    5864:	30257830 	.word	0x30257830
    5868:	69207838 	.word	0x69207838
    586c:	63615f73 	.word	0x63615f73
    5870:	65766974 	.word	0x65766974
    5874:	6425203a 	.word	0x6425203a
    5878:	0000000a 	.word	0x0000000a

0000587c <show_hw_bkpt>:
    587c:	b5f8      	push	{r3, r4, r5, r6, r7, lr}
    587e:	4811      	ldr	r0, [pc, #68]	; (58c4 <show_hw_bkpt+0x48>)
    5880:	f890 0028 	ldrb.w	r0, [r0, #40]	; 0x28
    5884:	2800      	cmp	r0, #0
    5886:	d001      	beq.n	588c <show_hw_bkpt+0x10>
    5888:	a10f      	add	r1, pc, #60	; (adr r1, 58c8 <show_hw_bkpt+0x4c>)
    588a:	e000      	b.n	588e <show_hw_bkpt+0x12>
    588c:	a10f      	add	r1, pc, #60	; (adr r1, 58cc <show_hw_bkpt+0x50>)
    588e:	a013      	add	r0, pc, #76	; (adr r0, 58dc <show_hw_bkpt+0x60>)
    5890:	f7fc fbf9 	bl	2086 <debug_log>
    5894:	2400      	movs	r4, #0
    5896:	4d1d      	ldr	r5, [pc, #116]	; (590c <show_hw_bkpt+0x90>)
    5898:	4e1d      	ldr	r6, [pc, #116]	; (5910 <show_hw_bkpt+0x94>)
    589a:	eb05 0084 	add.w	r0, r5, r4, lsl #2
    589e:	6880      	ldr	r0, [r0, #8]
    58a0:	f000 0201 	and.w	r2, r0, #1
    58a4:	0f83      	lsrs	r3, r0, #30
    58a6:	4030      	ands	r0, r6
    58a8:	2b02      	cmp	r3, #2
    58aa:	d101      	bne.n	58b0 <show_hw_bkpt+0x34>
    58ac:	f040 0002 	orr.w	r0, r0, #2
    58b0:	9000      	str	r0, [sp, #0]
    58b2:	4621      	mov	r1, r4
    58b4:	a017      	add	r0, pc, #92	; (adr r0, 5914 <show_hw_bkpt+0x98>)
    58b6:	f7fc fbe6 	bl	2086 <debug_log>
    58ba:	1c64      	adds	r4, r4, #1
    58bc:	2c06      	cmp	r4, #6
    58be:	dbec      	blt.n	589a <show_hw_bkpt+0x1e>
    58c0:	bdf8      	pop	{r3, r4, r5, r6, r7, pc}
    58c2:	0000      	.short	0x0000
    58c4:	20001064 	.word	0x20001064
    58c8:	00425046 	.word	0x00425046
    58cc:	75626564 	.word	0x75626564
    58d0:	6f6d2067 	.word	0x6f6d2067
    58d4:	6f74696e 	.word	0x6f74696e
    58d8:	00000072 	.word	0x00000072
    58dc:	706d7544 	.word	0x706d7544
    58e0:	72756320 	.word	0x72756320
    58e4:	746e6572 	.word	0x746e6572
    58e8:	72616820 	.word	0x72616820
    58ec:	72617764 	.word	0x72617764
    58f0:	72622065 	.word	0x72622065
    58f4:	706b6165 	.word	0x706b6165
    58f8:	746e696f 	.word	0x746e696f
    58fc:	4d202c73 	.word	0x4d202c73
    5900:	2d45444f 	.word	0x2d45444f
    5904:	0a3a7325 	.word	0x0a3a7325
    5908:	00000000 	.word	0x00000000
    590c:	e0002000 	.word	0xe0002000
    5910:	1ffffffc 	.word	0x1ffffffc
    5914:	50462020 	.word	0x50462020
    5918:	4d4f435f 	.word	0x4d4f435f
    591c:	64255b50 	.word	0x64255b50
    5920:	6e45205d 	.word	0x6e45205d
    5924:	656c6261 	.word	0x656c6261
    5928:	64252064 	.word	0x64252064
    592c:	6552202c 	.word	0x6552202c
    5930:	63616c70 	.word	0x63616c70
    5934:	25203a65 	.word	0x25203a65
    5938:	41202c64 	.word	0x41202c64
    593c:	65726464 	.word	0x65726464
    5940:	30207373 	.word	0x30207373
    5944:	0a782578 	.word	0x0a782578
    5948:	00000000 	.word	0x00000000

0000594c <show_local_patch_desc>:
    594c:	b570      	push	{r4, r5, r6, lr}
    594e:	2604      	movs	r6, #4
    5950:	2400      	movs	r4, #0
    5952:	4d08      	ldr	r5, [pc, #32]	; (5974 <show_local_patch_desc+0x28>)
    5954:	e007      	b.n	5966 <show_local_patch_desc+0x1a>
    5956:	eb05 1004 	add.w	r0, r5, r4, lsl #4
    595a:	4621      	mov	r1, r4
    595c:	6802      	ldr	r2, [r0, #0]
    595e:	a006      	add	r0, pc, #24	; (adr r0, 5978 <show_local_patch_desc+0x2c>)
    5960:	f7fc fb91 	bl	2086 <debug_log>
    5964:	1c64      	adds	r4, r4, #1
    5966:	42b4      	cmp	r4, r6
    5968:	dbf5      	blt.n	5956 <show_local_patch_desc+0xa>
    596a:	e8bd 4070 	ldmia.w	sp!, {r4, r5, r6, lr}
    596e:	f7ff bdf3 	b.w	5558 <setup_cve_list>
    5972:	0000      	.short	0x0000
    5974:	200003bc 	.word	0x200003bc
    5978:	2d206425 	.word	0x2d206425
    597c:	7325203e 	.word	0x7325203e
    5980:	0000000a 	.word	0x0000000a

00005984 <start_patch_service>:
    5984:	b510      	push	{r4, lr}
    5986:	f7fd fe67 	bl	3658 <init_patch_sys>
    598a:	2000      	movs	r0, #0
    598c:	bd10      	pop	{r4, pc}
	...

00005990 <std_n>:
    5990:	e92d 4ff8 	stmdb	sp!, {r3, r4, r5, r6, r7, r8, r9, sl, fp, lr}
    5994:	4682      	mov	sl, r0
    5996:	468b      	mov	fp, r1
    5998:	4691      	mov	r9, r2
    599a:	461f      	mov	r7, r3
    599c:	f8df 8078 	ldr.w	r8, [pc, #120]	; 5a18 <std_n+0x88>
    59a0:	f8d8 5008 	ldr.w	r5, [r8, #8]
    59a4:	2201      	movs	r2, #1
    59a6:	4669      	mov	r1, sp
    59a8:	4638      	mov	r0, r7
    59aa:	f7fc fa5f 	bl	1e6c <buf_prealloc>
    59ae:	b348      	cbz	r0, 5a04 <std_n+0x74>
    59b0:	9e00      	ldr	r6, [sp, #0]
    59b2:	1cb0      	adds	r0, r6, #2
    59b4:	2400      	movs	r4, #0
    59b6:	e008      	b.n	59ca <std_n+0x3a>
    59b8:	4601      	mov	r1, r0
    59ba:	1c40      	adds	r0, r0, #1
    59bc:	4029      	ands	r1, r5
    59be:	eb08 0181 	add.w	r1, r8, r1, lsl #2
    59c2:	f859 2024 	ldr.w	r2, [r9, r4, lsl #2]
    59c6:	60ca      	str	r2, [r1, #12]
    59c8:	1c64      	adds	r4, r4, #1
    59ca:	42bc      	cmp	r4, r7
    59cc:	d3f4      	bcc.n	59b8 <std_n+0x28>
    59ce:	ea4f 441a 	mov.w	r4, sl, lsr #16
    59d2:	f7fc fbb9 	bl	2148 <dropped_sat16_get>
    59d6:	ea44 4100 	orr.w	r1, r4, r0, lsl #16
    59da:	1c70      	adds	r0, r6, #1
    59dc:	4028      	ands	r0, r5
    59de:	eb08 0080 	add.w	r0, r8, r0, lsl #2
    59e2:	60c1      	str	r1, [r0, #12]
    59e4:	402e      	ands	r6, r5
    59e6:	eb08 0086 	add.w	r0, r8, r6, lsl #2
    59ea:	68c1      	ldr	r1, [r0, #12]
    59ec:	f36a 01c5 	bfi	r1, sl, #3, #3
    59f0:	f367 1189 	bfi	r1, r7, #6, #4
    59f4:	f36b 219f 	bfi	r1, fp, #10, #22
    59f8:	f021 0103 	bic.w	r1, r1, #3
    59fc:	1c49      	adds	r1, r1, #1
    59fe:	f021 0104 	bic.w	r1, r1, #4
    5a02:	60c1      	str	r1, [r0, #12]
    5a04:	f898 0420 	ldrb.w	r0, [r8, #1056]	; 0x420
    5a08:	2800      	cmp	r0, #0
    5a0a:	d003      	beq.n	5a14 <std_n+0x84>
    5a0c:	f7fe fd8c 	bl	4528 <nrf_log_frontend_dequeue>
    5a10:	2800      	cmp	r0, #0
    5a12:	d1fb      	bne.n	5a0c <std_n+0x7c>
    5a14:	e8bd 8ff8 	ldmia.w	sp!, {r3, r4, r5, r6, r7, r8, r9, sl, fp, pc}
    5a18:	20000810 	.word	0x20000810

00005a1c <str2int>:
    5a1c:	2100      	movs	r1, #0
    5a1e:	e005      	b.n	5a2c <str2int+0x10>
    5a20:	eb01 0181 	add.w	r1, r1, r1, lsl #2
    5a24:	0049      	lsls	r1, r1, #1
    5a26:	3930      	subs	r1, #48	; 0x30
    5a28:	4411      	add	r1, r2
    5a2a:	1c40      	adds	r0, r0, #1
    5a2c:	7802      	ldrb	r2, [r0, #0]
    5a2e:	2a00      	cmp	r2, #0
    5a30:	d1f6      	bne.n	5a20 <str2int+0x4>
    5a32:	4608      	mov	r0, r1
    5a34:	4770      	bx	lr

00005a36 <string_print>:
    5a36:	e92d 41f0 	stmdb	sp!, {r4, r5, r6, r7, r8, lr}
    5a3a:	4607      	mov	r7, r0
    5a3c:	460d      	mov	r5, r1
    5a3e:	4614      	mov	r4, r2
    5a40:	2600      	movs	r6, #0
    5a42:	07d8      	lsls	r0, r3, #31
    5a44:	d105      	bne.n	5a52 <string_print+0x1c>
    5a46:	e013      	b.n	5a70 <string_print+0x3a>
    5a48:	1c6d      	adds	r5, r5, #1
    5a4a:	1c76      	adds	r6, r6, #1
    5a4c:	4638      	mov	r0, r7
    5a4e:	f7fc fa57 	bl	1f00 <buffer_add>
    5a52:	7829      	ldrb	r1, [r5, #0]
    5a54:	2900      	cmp	r1, #0
    5a56:	d1f7      	bne.n	5a48 <string_print+0x12>
    5a58:	e004      	b.n	5a64 <string_print+0x2e>
    5a5a:	1e64      	subs	r4, r4, #1
    5a5c:	2120      	movs	r1, #32
    5a5e:	4638      	mov	r0, r7
    5a60:	f7fc fa4e 	bl	1f00 <buffer_add>
    5a64:	42b4      	cmp	r4, r6
    5a66:	d901      	bls.n	5a6c <string_print+0x36>
    5a68:	2c00      	cmp	r4, #0
    5a6a:	d1f6      	bne.n	5a5a <string_print+0x24>
    5a6c:	e8bd 81f0 	ldmia.w	sp!, {r4, r5, r6, r7, r8, pc}
    5a70:	b14d      	cbz	r5, 5a86 <string_print+0x50>
    5a72:	4628      	mov	r0, r5
    5a74:	f7fa fd54 	bl	520 <strlen>
    5a78:	4606      	mov	r6, r0
    5a7a:	e004      	b.n	5a86 <string_print+0x50>
    5a7c:	1e64      	subs	r4, r4, #1
    5a7e:	2120      	movs	r1, #32
    5a80:	4638      	mov	r0, r7
    5a82:	f7fc fa3d 	bl	1f00 <buffer_add>
    5a86:	42b4      	cmp	r4, r6
    5a88:	d906      	bls.n	5a98 <string_print+0x62>
    5a8a:	2c00      	cmp	r4, #0
    5a8c:	d1f6      	bne.n	5a7c <string_print+0x46>
    5a8e:	e003      	b.n	5a98 <string_print+0x62>
    5a90:	1c6d      	adds	r5, r5, #1
    5a92:	4638      	mov	r0, r7
    5a94:	f7fc fa34 	bl	1f00 <buffer_add>
    5a98:	7829      	ldrb	r1, [r5, #0]
    5a9a:	2900      	cmp	r1, #0
    5a9c:	d1f8      	bne.n	5a90 <string_print+0x5a>
    5a9e:	e7e5      	b.n	5a6c <string_print+0x36>

00005aa0 <test_debug_patch>:
    5aa0:	b510      	push	{r4, lr}
    5aa2:	a003      	add	r0, pc, #12	; (adr r0, 5ab0 <test_debug_patch+0x10>)
    5aa4:	f7fc faef 	bl	2086 <debug_log>
    5aa8:	e8bd 4010 	ldmia.w	sp!, {r4, lr}
    5aac:	f000 b80a 	b.w	5ac4 <test_debugmon_patch>
    5ab0:	74736574 	.word	0x74736574
    5ab4:	6265645f 	.word	0x6265645f
    5ab8:	705f6775 	.word	0x705f6775
    5abc:	68637461 	.word	0x68637461
    5ac0:	0000000a 	.word	0x0000000a

00005ac4 <test_debugmon_patch>:
    5ac4:	b510      	push	{r4, lr}
    5ac6:	f7fa ffbf 	bl	a48 <RawBuggyFunc>
    5aca:	a003      	add	r0, pc, #12	; (adr r0, 5ad8 <test_debugmon_patch+0x14>)
    5acc:	f7fc fadb 	bl	2086 <debug_log>
    5ad0:	e8bd 4010 	ldmia.w	sp!, {r4, lr}
    5ad4:	f7fd bcb2 	b.w	343c <fpb_setup_test>
    5ad8:	74736574 	.word	0x74736574
    5adc:	6265645f 	.word	0x6265645f
    5ae0:	6f6d6775 	.word	0x6f6d6775
    5ae4:	61705f6e 	.word	0x61705f6e
    5ae8:	0a686374 	.word	0x0a686374
    5aec:	00000000 	.word	0x00000000

00005af0 <test_dynamic_bug>:
    5af0:	f5b0 6ffa 	cmp.w	r0, #2000	; 0x7d0
    5af4:	dd02      	ble.n	5afc <test_dynamic_bug+0xc>
    5af6:	f04f 30ff 	mov.w	r0, #4294967295	; 0xffffffff
    5afa:	4770      	bx	lr
    5afc:	2000      	movs	r0, #0
    5afe:	4770      	bx	lr

00005b00 <test_patch_trigger>:
    5b00:	f000 b847 	b.w	5b92 <trigger_debugmon>

00005b04 <this_is_cve_trigger_func>:
    5b04:	b570      	push	{r4, r5, r6, lr}
    5b06:	490e      	ldr	r1, [pc, #56]	; (5b40 <this_is_cve_trigger_func+0x3c>)
    5b08:	a00e      	add	r0, pc, #56	; (adr r0, 5b44 <this_is_cve_trigger_func+0x40>)
    5b0a:	f7fc fabc 	bl	2086 <debug_log>
    5b0e:	a013      	add	r0, pc, #76	; (adr r0, 5b5c <this_is_cve_trigger_func+0x58>)
    5b10:	f7ff fabe 	bl	5090 <profile_add_event>
    5b14:	2400      	movs	r4, #0
    5b16:	f241 1594 	movw	r5, #4500	; 0x1194
    5b1a:	4628      	mov	r0, r5
    5b1c:	f7ff ffe8 	bl	5af0 <test_dynamic_bug>
    5b20:	b160      	cbz	r0, 5b3c <this_is_cve_trigger_func+0x38>
    5b22:	a212      	add	r2, pc, #72	; (adr r2, 5b6c <this_is_cve_trigger_func+0x68>)
    5b24:	4621      	mov	r1, r4
    5b26:	a012      	add	r0, pc, #72	; (adr r0, 5b70 <this_is_cve_trigger_func+0x6c>)
    5b28:	f7fc faad 	bl	2086 <debug_log>
    5b2c:	1c64      	adds	r4, r4, #1
    5b2e:	2c01      	cmp	r4, #1
    5b30:	dbf3      	blt.n	5b1a <this_is_cve_trigger_func+0x16>
    5b32:	e8bd 4070 	ldmia.w	sp!, {r4, r5, r6, lr}
    5b36:	2001      	movs	r0, #1
    5b38:	f7ff bada 	b.w	50f0 <profile_dump>
    5b3c:	a213      	add	r2, pc, #76	; (adr r2, 5b8c <this_is_cve_trigger_func+0x88>)
    5b3e:	e7f1      	b.n	5b24 <this_is_cve_trigger_func+0x20>
    5b40:	00005af1 	.word	0x00005af1
    5b44:	206e7572 	.word	0x206e7572
    5b48:	74736574 	.word	0x74736574
    5b4c:	6e75665f 	.word	0x6e75665f
    5b50:	30203a63 	.word	0x30203a63
    5b54:	38302578 	.word	0x38302578
    5b58:	00000a78 	.word	0x00000a78
    5b5c:	6d6d7564 	.word	0x6d6d7564
    5b60:	76632079 	.word	0x76632079
    5b64:	74732065 	.word	0x74732065
    5b68:	00747261 	.word	0x00747261
    5b6c:	00006f6e 	.word	0x00006f6e
    5b70:	3430255b 	.word	0x3430255b
    5b74:	69205d64 	.word	0x69205d64
    5b78:	75622073 	.word	0x75622073
    5b7c:	69662067 	.word	0x69662067
    5b80:	3f646578 	.word	0x3f646578
    5b84:	0a732520 	.word	0x0a732520
    5b88:	00000000 	.word	0x00000000
    5b8c:	00736579 	.word	0x00736579

00005b90 <timestamp_print>:
    5b90:	4770      	bx	lr

00005b92 <trigger_debugmon>:
    5b92:	f7fa bf59 	b.w	a48 <RawBuggyFunc>

00005b96 <tx_blocking>:
    5b96:	e92d 41f0 	stmdb	sp!, {r4, r5, r6, r7, r8, lr}
    5b9a:	4607      	mov	r7, r0
    5b9c:	460c      	mov	r4, r1
    5b9e:	6965      	ldr	r5, [r4, #20]
    5ba0:	f44f 768e 	mov.w	r6, #284	; 0x11c
    5ba4:	e00f      	b.n	5bc6 <tx_blocking+0x30>
    5ba6:	f894 0028 	ldrb.w	r0, [r4, #40]	; 0x28
    5baa:	b110      	cbz	r0, 5bb2 <tx_blocking+0x1c>
    5bac:	2000      	movs	r0, #0
    5bae:	e8bd 81f0 	ldmia.w	sp!, {r4, r5, r6, r7, r8, pc}
    5bb2:	4631      	mov	r1, r6
    5bb4:	4638      	mov	r0, r7
    5bb6:	f7fe ff6b 	bl	4a90 <nrf_uart_event_check>
    5bba:	2800      	cmp	r0, #0
    5bbc:	d0f3      	beq.n	5ba6 <tx_blocking+0x10>
    5bbe:	4621      	mov	r1, r4
    5bc0:	4638      	mov	r0, r7
    5bc2:	f000 f805 	bl	5bd0 <tx_byte>
    5bc6:	6a20      	ldr	r0, [r4, #32]
    5bc8:	42a8      	cmp	r0, r5
    5bca:	d3f2      	bcc.n	5bb2 <tx_blocking+0x1c>
    5bcc:	2001      	movs	r0, #1
    5bce:	e7ee      	b.n	5bae <tx_blocking+0x18>

00005bd0 <tx_byte>:
    5bd0:	b570      	push	{r4, r5, r6, lr}
    5bd2:	4605      	mov	r5, r0
    5bd4:	460c      	mov	r4, r1
    5bd6:	f44f 718e 	mov.w	r1, #284	; 0x11c
    5bda:	4628      	mov	r0, r5
    5bdc:	f7fe ff5d 	bl	4a9a <nrf_uart_event_clear>
    5be0:	6a21      	ldr	r1, [r4, #32]
    5be2:	68a0      	ldr	r0, [r4, #8]
    5be4:	5c41      	ldrb	r1, [r0, r1]
    5be6:	6a22      	ldr	r2, [r4, #32]
    5be8:	1c52      	adds	r2, r2, #1
    5bea:	6222      	str	r2, [r4, #32]
    5bec:	f8c5 151c 	str.w	r1, [r5, #1308]	; 0x51c
    5bf0:	bd70      	pop	{r4, r5, r6, pc}

00005bf2 <tx_done_event>:
    5bf2:	b51f      	push	{r0, r1, r2, r3, r4, lr}
    5bf4:	2200      	movs	r2, #0
    5bf6:	f88d 2000 	strb.w	r2, [sp]
    5bfa:	9102      	str	r1, [sp, #8]
    5bfc:	6881      	ldr	r1, [r0, #8]
    5bfe:	9101      	str	r1, [sp, #4]
    5c00:	6142      	str	r2, [r0, #20]
    5c02:	c806      	ldmia	r0!, {r1, r2}
    5c04:	4668      	mov	r0, sp
    5c06:	4790      	blx	r2
    5c08:	bd1f      	pop	{r0, r1, r2, r3, r4, pc}

00005c0a <tx_done_event>:
    5c0a:	b51f      	push	{r0, r1, r2, r3, r4, lr}
    5c0c:	2200      	movs	r2, #0
    5c0e:	f88d 2000 	strb.w	r2, [sp]
    5c12:	9102      	str	r1, [sp, #8]
    5c14:	6881      	ldr	r1, [r0, #8]
    5c16:	9101      	str	r1, [sp, #4]
    5c18:	6142      	str	r2, [r0, #20]
    5c1a:	c806      	ldmia	r0!, {r1, r2}
    5c1c:	4668      	mov	r0, sp
    5c1e:	4790      	blx	r2
    5c20:	bd1f      	pop	{r0, r1, r2, r3, r4, pc}
	...

00005c24 <uart_config>:
    5c24:	b500      	push	{lr}
    5c26:	b08b      	sub	sp, #44	; 0x2c
    5c28:	2218      	movs	r2, #24
    5c2a:	490c      	ldr	r1, [pc, #48]	; (5c5c <uart_config+0x38>)
    5c2c:	a805      	add	r0, sp, #20
    5c2e:	f7fa fc53 	bl	4d8 <__aeabi_memcpy>
    5c32:	480b      	ldr	r0, [pc, #44]	; (5c60 <uart_config+0x3c>)
    5c34:	9001      	str	r0, [sp, #4]
    5c36:	f44f 7080 	mov.w	r0, #256	; 0x100
    5c3a:	9002      	str	r0, [sp, #8]
    5c3c:	4909      	ldr	r1, [pc, #36]	; (5c64 <uart_config+0x40>)
    5c3e:	9103      	str	r1, [sp, #12]
    5c40:	9004      	str	r0, [sp, #16]
    5c42:	2307      	movs	r3, #7
    5c44:	4a08      	ldr	r2, [pc, #32]	; (5c68 <uart_config+0x44>)
    5c46:	a901      	add	r1, sp, #4
    5c48:	a805      	add	r0, sp, #20
    5c4a:	f7fb ff7f 	bl	1b4c <app_uart_init>
    5c4e:	2800      	cmp	r0, #0
    5c50:	d001      	beq.n	5c56 <uart_config+0x32>
    5c52:	f7fb ff2b 	bl	1aac <app_error_handler_bare>
    5c56:	b00b      	add	sp, #44	; 0x2c
    5c58:	bd00      	pop	{pc}
    5c5a:	0000      	.short	0x0000
    5c5c:	000060fc 	.word	0x000060fc
    5c60:	20000408 	.word	0x20000408
    5c64:	20000508 	.word	0x20000508
    5c68:	00005c6d 	.word	0x00005c6d

00005c6c <uart_error_handle>:
    5c6c:	7801      	ldrb	r1, [r0, #0]
    5c6e:	2902      	cmp	r1, #2
    5c70:	d004      	beq.n	5c7c <uart_error_handle+0x10>
    5c72:	2901      	cmp	r1, #1
    5c74:	d105      	bne.n	5c82 <uart_error_handle+0x16>
    5c76:	6840      	ldr	r0, [r0, #4]
    5c78:	f7fb bf18 	b.w	1aac <app_error_handler_bare>
    5c7c:	6840      	ldr	r0, [r0, #4]
    5c7e:	f7fb bf15 	b.w	1aac <app_error_handler_bare>
    5c82:	4770      	bx	lr

00005c84 <uart_event_handler>:
    5c84:	b57c      	push	{r2, r3, r4, r5, r6, lr}
    5c86:	7801      	ldrb	r1, [r0, #0]
    5c88:	4c2c      	ldr	r4, [pc, #176]	; (5d3c <uart_event_handler+0xb8>)
    5c8a:	2900      	cmp	r1, #0
    5c8c:	d041      	beq.n	5d12 <uart_event_handler+0x8e>
    5c8e:	2901      	cmp	r1, #1
    5c90:	d00e      	beq.n	5cb0 <uart_event_handler+0x2c>
    5c92:	2902      	cmp	r1, #2
    5c94:	d10b      	bne.n	5cae <uart_event_handler+0x2a>
    5c96:	f88d 1000 	strb.w	r1, [sp]
    5c9a:	68c0      	ldr	r0, [r0, #12]
    5c9c:	9001      	str	r0, [sp, #4]
    5c9e:	1c61      	adds	r1, r4, #1
    5ca0:	2201      	movs	r2, #1
    5ca2:	1dc8      	adds	r0, r1, #7
    5ca4:	f7fe f990 	bl	3fc8 <nrf_drv_uart_rx>
    5ca8:	6861      	ldr	r1, [r4, #4]
    5caa:	4668      	mov	r0, sp
    5cac:	4788      	blx	r1
    5cae:	bd7c      	pop	{r2, r3, r4, r5, r6, pc}
    5cb0:	7a01      	ldrb	r1, [r0, #8]
    5cb2:	b171      	cbz	r1, 5cd2 <uart_event_handler+0x4e>
    5cb4:	6840      	ldr	r0, [r0, #4]
    5cb6:	7801      	ldrb	r1, [r0, #0]
    5cb8:	4821      	ldr	r0, [pc, #132]	; (5d40 <uart_event_handler+0xbc>)
    5cba:	f7fb ff1f 	bl	1afc <app_fifo_put>
    5cbe:	4d20      	ldr	r5, [pc, #128]	; (5d40 <uart_event_handler+0xbc>)
    5cc0:	2601      	movs	r6, #1
    5cc2:	b168      	cbz	r0, 5ce0 <uart_event_handler+0x5c>
    5cc4:	f88d 6000 	strb.w	r6, [sp]
    5cc8:	9001      	str	r0, [sp, #4]
    5cca:	6861      	ldr	r1, [r4, #4]
    5ccc:	4668      	mov	r0, sp
    5cce:	4788      	blx	r1
    5cd0:	e010      	b.n	5cf4 <uart_event_handler+0x70>
    5cd2:	491a      	ldr	r1, [pc, #104]	; (5d3c <uart_event_handler+0xb8>)
    5cd4:	2201      	movs	r2, #1
    5cd6:	1c49      	adds	r1, r1, #1
    5cd8:	1dc8      	adds	r0, r1, #7
    5cda:	f7fe f975 	bl	3fc8 <nrf_drv_uart_rx>
    5cde:	bd7c      	pop	{r2, r3, r4, r5, r6, pc}
    5ce0:	68a8      	ldr	r0, [r5, #8]
    5ce2:	68e9      	ldr	r1, [r5, #12]
    5ce4:	1a08      	subs	r0, r1, r0
    5ce6:	b128      	cbz	r0, 5cf4 <uart_event_handler+0x70>
    5ce8:	2000      	movs	r0, #0
    5cea:	f88d 0000 	strb.w	r0, [sp]
    5cee:	6861      	ldr	r1, [r4, #4]
    5cf0:	4668      	mov	r0, sp
    5cf2:	4788      	blx	r1
    5cf4:	68a8      	ldr	r0, [r5, #8]
    5cf6:	68e9      	ldr	r1, [r5, #12]
    5cf8:	1a08      	subs	r0, r1, r0
    5cfa:	88a9      	ldrh	r1, [r5, #4]
    5cfc:	4288      	cmp	r0, r1
    5cfe:	d806      	bhi.n	5d0e <uart_event_handler+0x8a>
    5d00:	490e      	ldr	r1, [pc, #56]	; (5d3c <uart_event_handler+0xb8>)
    5d02:	2201      	movs	r2, #1
    5d04:	1c49      	adds	r1, r1, #1
    5d06:	1dc8      	adds	r0, r1, #7
    5d08:	f7fe f95e 	bl	3fc8 <nrf_drv_uart_rx>
    5d0c:	bd7c      	pop	{r2, r3, r4, r5, r6, pc}
    5d0e:	70a6      	strb	r6, [r4, #2]
    5d10:	bd7c      	pop	{r2, r3, r4, r5, r6, pc}
    5d12:	480b      	ldr	r0, [pc, #44]	; (5d40 <uart_event_handler+0xbc>)
    5d14:	4909      	ldr	r1, [pc, #36]	; (5d3c <uart_event_handler+0xb8>)
    5d16:	3010      	adds	r0, #16
    5d18:	f7fb fed3 	bl	1ac2 <app_fifo_get>
    5d1c:	b130      	cbz	r0, 5d2c <uart_event_handler+0xa8>
    5d1e:	2003      	movs	r0, #3
    5d20:	f88d 0000 	strb.w	r0, [sp]
    5d24:	6861      	ldr	r1, [r4, #4]
    5d26:	4668      	mov	r0, sp
    5d28:	4788      	blx	r1
    5d2a:	bd7c      	pop	{r2, r3, r4, r5, r6, pc}
    5d2c:	4903      	ldr	r1, [pc, #12]	; (5d3c <uart_event_handler+0xb8>)
    5d2e:	2201      	movs	r2, #1
    5d30:	f101 0008 	add.w	r0, r1, #8
    5d34:	f7fe f958 	bl	3fe8 <nrf_drv_uart_tx>
    5d38:	bd7c      	pop	{r2, r3, r4, r5, r6, pc}
    5d3a:	0000      	.short	0x0000
    5d3c:	20000020 	.word	0x20000020
    5d40:	20000658 	.word	0x20000658

00005d44 <uart_evt_handler>:
    5d44:	b51f      	push	{r0, r1, r2, r3, r4, lr}
    5d46:	7802      	ldrb	r2, [r0, #0]
    5d48:	f88d 2000 	strb.w	r2, [sp]
    5d4c:	6842      	ldr	r2, [r0, #4]
    5d4e:	9201      	str	r2, [sp, #4]
    5d50:	7a02      	ldrb	r2, [r0, #8]
    5d52:	f88d 2008 	strb.w	r2, [sp, #8]
    5d56:	68c0      	ldr	r0, [r0, #12]
    5d58:	9003      	str	r0, [sp, #12]
    5d5a:	4805      	ldr	r0, [pc, #20]	; (5d70 <uart_evt_handler+0x2c>)
    5d5c:	4a04      	ldr	r2, [pc, #16]	; (5d70 <uart_evt_handler+0x2c>)
    5d5e:	3a08      	subs	r2, #8
    5d60:	f850 0021 	ldr.w	r0, [r0, r1, lsl #2]
    5d64:	f852 2021 	ldr.w	r2, [r2, r1, lsl #2]
    5d68:	4601      	mov	r1, r0
    5d6a:	4668      	mov	r0, sp
    5d6c:	4790      	blx	r2
    5d6e:	bd1f      	pop	{r0, r1, r2, r3, r4, pc}
    5d70:	2000000c 	.word	0x2000000c

00005d74 <uart_irq_handler>:
    5d74:	e92d 47ff 	stmdb	sp!, {r0, r1, r2, r3, r4, r5, r6, r7, r8, r9, sl, lr}
    5d78:	4605      	mov	r5, r0
    5d7a:	460c      	mov	r4, r1
    5d7c:	f44f 7100 	mov.w	r1, #512	; 0x200
    5d80:	4628      	mov	r0, r5
    5d82:	f7fe fe90 	bl	4aa6 <nrf_uart_int_enable_check>
    5d86:	2701      	movs	r7, #1
    5d88:	f44f 7801 	mov.w	r8, #516	; 0x204
    5d8c:	2600      	movs	r6, #0
    5d8e:	b318      	cbz	r0, 5dd8 <uart_irq_handler+0x64>
    5d90:	f44f 7992 	mov.w	r9, #292	; 0x124
    5d94:	4649      	mov	r1, r9
    5d96:	4628      	mov	r0, r5
    5d98:	f7fe fe7a 	bl	4a90 <nrf_uart_event_check>
    5d9c:	b1e0      	cbz	r0, 5dd8 <uart_irq_handler+0x64>
    5d9e:	4649      	mov	r1, r9
    5da0:	4628      	mov	r0, r5
    5da2:	f7fe fe7a 	bl	4a9a <nrf_uart_event_clear>
    5da6:	f8c5 8308 	str.w	r8, [r5, #776]	; 0x308
    5daa:	f894 0029 	ldrb.w	r0, [r4, #41]	; 0x29
    5dae:	b900      	cbnz	r0, 5db2 <uart_irq_handler+0x3e>
    5db0:	606f      	str	r7, [r5, #4]
    5db2:	2002      	movs	r0, #2
    5db4:	f88d 0000 	strb.w	r0, [sp]
    5db8:	f8d5 0480 	ldr.w	r0, [r5, #1152]	; 0x480
    5dbc:	f8c5 0480 	str.w	r0, [r5, #1152]	; 0x480
    5dc0:	9003      	str	r0, [sp, #12]
    5dc2:	69a0      	ldr	r0, [r4, #24]
    5dc4:	9002      	str	r0, [sp, #8]
    5dc6:	68e0      	ldr	r0, [r4, #12]
    5dc8:	9001      	str	r0, [sp, #4]
    5dca:	61a6      	str	r6, [r4, #24]
    5dcc:	61e6      	str	r6, [r4, #28]
    5dce:	e9d4 1200 	ldrd	r1, r2, [r4]
    5dd2:	4668      	mov	r0, sp
    5dd4:	4790      	blx	r2
    5dd6:	e02b      	b.n	5e30 <uart_irq_handler+0xbc>
    5dd8:	2104      	movs	r1, #4
    5dda:	4628      	mov	r0, r5
    5ddc:	f7fe fe63 	bl	4aa6 <nrf_uart_int_enable_check>
    5de0:	b330      	cbz	r0, 5e30 <uart_irq_handler+0xbc>
    5de2:	f44f 7184 	mov.w	r1, #264	; 0x108
    5de6:	4628      	mov	r0, r5
    5de8:	f7fe fe52 	bl	4a90 <nrf_uart_event_check>
    5dec:	b300      	cbz	r0, 5e30 <uart_irq_handler+0xbc>
    5dee:	4621      	mov	r1, r4
    5df0:	4628      	mov	r0, r5
    5df2:	f7ff fb23 	bl	543c <rx_byte>
    5df6:	6a61      	ldr	r1, [r4, #36]	; 0x24
    5df8:	69a0      	ldr	r0, [r4, #24]
    5dfa:	4288      	cmp	r0, r1
    5dfc:	d118      	bne.n	5e30 <uart_irq_handler+0xbc>
    5dfe:	69e0      	ldr	r0, [r4, #28]
    5e00:	b150      	cbz	r0, 5e18 <uart_irq_handler+0xa4>
    5e02:	68e2      	ldr	r2, [r4, #12]
    5e04:	6a61      	ldr	r1, [r4, #36]	; 0x24
    5e06:	61a0      	str	r0, [r4, #24]
    5e08:	6920      	ldr	r0, [r4, #16]
    5e0a:	60e0      	str	r0, [r4, #12]
    5e0c:	61e6      	str	r6, [r4, #28]
    5e0e:	6266      	str	r6, [r4, #36]	; 0x24
    5e10:	4620      	mov	r0, r4
    5e12:	f7ff fb2d 	bl	5470 <rx_done_event>
    5e16:	e00b      	b.n	5e30 <uart_irq_handler+0xbc>
    5e18:	f894 0029 	ldrb.w	r0, [r4, #41]	; 0x29
    5e1c:	b900      	cbnz	r0, 5e20 <uart_irq_handler+0xac>
    5e1e:	606f      	str	r7, [r5, #4]
    5e20:	f8c5 8308 	str.w	r8, [r5, #776]	; 0x308
    5e24:	61a6      	str	r6, [r4, #24]
    5e26:	68e2      	ldr	r2, [r4, #12]
    5e28:	6a61      	ldr	r1, [r4, #36]	; 0x24
    5e2a:	4620      	mov	r0, r4
    5e2c:	f7ff fb20 	bl	5470 <rx_done_event>
    5e30:	f44f 788e 	mov.w	r8, #284	; 0x11c
    5e34:	4641      	mov	r1, r8
    5e36:	4628      	mov	r0, r5
    5e38:	f7fe fe2a 	bl	4a90 <nrf_uart_event_check>
    5e3c:	b180      	cbz	r0, 5e60 <uart_irq_handler+0xec>
    5e3e:	6960      	ldr	r0, [r4, #20]
    5e40:	6a21      	ldr	r1, [r4, #32]
    5e42:	4281      	cmp	r1, r0
    5e44:	d202      	bcs.n	5e4c <uart_irq_handler+0xd8>
    5e46:	f894 0028 	ldrb.w	r0, [r4, #40]	; 0x28
    5e4a:	b328      	cbz	r0, 5e98 <uart_irq_handler+0x124>
    5e4c:	4641      	mov	r1, r8
    5e4e:	4628      	mov	r0, r5
    5e50:	f7fe fe23 	bl	4a9a <nrf_uart_event_clear>
    5e54:	6960      	ldr	r0, [r4, #20]
    5e56:	b118      	cbz	r0, 5e60 <uart_irq_handler+0xec>
    5e58:	6961      	ldr	r1, [r4, #20]
    5e5a:	4620      	mov	r0, r4
    5e5c:	f7ff fec9 	bl	5bf2 <tx_done_event>
    5e60:	f44f 78a2 	mov.w	r8, #324	; 0x144
    5e64:	4641      	mov	r1, r8
    5e66:	4628      	mov	r0, r5
    5e68:	f7fe fe12 	bl	4a90 <nrf_uart_event_check>
    5e6c:	2800      	cmp	r0, #0
    5e6e:	d018      	beq.n	5ea2 <uart_irq_handler+0x12e>
    5e70:	4641      	mov	r1, r8
    5e72:	4628      	mov	r0, r5
    5e74:	f7fe fe11 	bl	4a9a <nrf_uart_event_clear>
    5e78:	f894 0029 	ldrb.w	r0, [r4, #41]	; 0x29
    5e7c:	b100      	cbz	r0, 5e80 <uart_irq_handler+0x10c>
    5e7e:	602f      	str	r7, [r5, #0]
    5e80:	69a0      	ldr	r0, [r4, #24]
    5e82:	2800      	cmp	r0, #0
    5e84:	d00d      	beq.n	5ea2 <uart_irq_handler+0x12e>
    5e86:	61a6      	str	r6, [r4, #24]
    5e88:	68e2      	ldr	r2, [r4, #12]
    5e8a:	6a61      	ldr	r1, [r4, #36]	; 0x24
    5e8c:	b004      	add	sp, #16
    5e8e:	4620      	mov	r0, r4
    5e90:	e8bd 47f0 	ldmia.w	sp!, {r4, r5, r6, r7, r8, r9, sl, lr}
    5e94:	f7ff baec 	b.w	5470 <rx_done_event>
    5e98:	4621      	mov	r1, r4
    5e9a:	4628      	mov	r0, r5
    5e9c:	f7ff fe98 	bl	5bd0 <tx_byte>
    5ea0:	e7de      	b.n	5e60 <uart_irq_handler+0xec>
    5ea2:	e8bd 87ff 	ldmia.w	sp!, {r0, r1, r2, r3, r4, r5, r6, r7, r8, r9, sl, pc}
	...

00005ea8 <uarte_evt_handler>:
    5ea8:	b51f      	push	{r0, r1, r2, r3, r4, lr}
    5eaa:	7802      	ldrb	r2, [r0, #0]
    5eac:	f88d 2000 	strb.w	r2, [sp]
    5eb0:	6842      	ldr	r2, [r0, #4]
    5eb2:	9201      	str	r2, [sp, #4]
    5eb4:	7a02      	ldrb	r2, [r0, #8]
    5eb6:	f88d 2008 	strb.w	r2, [sp, #8]
    5eba:	68c0      	ldr	r0, [r0, #12]
    5ebc:	9003      	str	r0, [sp, #12]
    5ebe:	4805      	ldr	r0, [pc, #20]	; (5ed4 <uarte_evt_handler+0x2c>)
    5ec0:	4a04      	ldr	r2, [pc, #16]	; (5ed4 <uarte_evt_handler+0x2c>)
    5ec2:	3a08      	subs	r2, #8
    5ec4:	f850 0021 	ldr.w	r0, [r0, r1, lsl #2]
    5ec8:	f852 2021 	ldr.w	r2, [r2, r1, lsl #2]
    5ecc:	4601      	mov	r1, r0
    5ece:	4668      	mov	r0, sp
    5ed0:	4790      	blx	r2
    5ed2:	bd1f      	pop	{r0, r1, r2, r3, r4, pc}
    5ed4:	2000000c 	.word	0x2000000c

00005ed8 <uarte_irq_handler>:
    5ed8:	e92d 41ff 	stmdb	sp!, {r0, r1, r2, r3, r4, r5, r6, r7, r8, lr}
    5edc:	4605      	mov	r5, r0
    5ede:	460c      	mov	r4, r1
    5ee0:	f44f 7792 	mov.w	r7, #292	; 0x124
    5ee4:	4639      	mov	r1, r7
    5ee6:	4628      	mov	r0, r5
    5ee8:	f7fe fde3 	bl	4ab2 <nrf_uarte_event_check>
    5eec:	2600      	movs	r6, #0
    5eee:	b1b8      	cbz	r0, 5f20 <uarte_irq_handler+0x48>
    5ef0:	4639      	mov	r1, r7
    5ef2:	4628      	mov	r0, r5
    5ef4:	f7fe fde2 	bl	4abc <nrf_uarte_event_clear>
    5ef8:	2002      	movs	r0, #2
    5efa:	f88d 0000 	strb.w	r0, [sp]
    5efe:	f8d5 0480 	ldr.w	r0, [r5, #1152]	; 0x480
    5f02:	f8c5 0480 	str.w	r0, [r5, #1152]	; 0x480
    5f06:	9003      	str	r0, [sp, #12]
    5f08:	f8d5 053c 	ldr.w	r0, [r5, #1340]	; 0x53c
    5f0c:	9002      	str	r0, [sp, #8]
    5f0e:	68e0      	ldr	r0, [r4, #12]
    5f10:	9001      	str	r0, [sp, #4]
    5f12:	61a6      	str	r6, [r4, #24]
    5f14:	61e6      	str	r6, [r4, #28]
    5f16:	e9d4 1200 	ldrd	r1, r2, [r4]
    5f1a:	4668      	mov	r0, sp
    5f1c:	4790      	blx	r2
    5f1e:	e026      	b.n	5f6e <uarte_irq_handler+0x96>
    5f20:	f44f 7788 	mov.w	r7, #272	; 0x110
    5f24:	4639      	mov	r1, r7
    5f26:	4628      	mov	r0, r5
    5f28:	f7fe fdc3 	bl	4ab2 <nrf_uarte_event_check>
    5f2c:	b1f8      	cbz	r0, 5f6e <uarte_irq_handler+0x96>
    5f2e:	4639      	mov	r1, r7
    5f30:	4628      	mov	r0, r5
    5f32:	f7fe fdc3 	bl	4abc <nrf_uarte_event_clear>
    5f36:	f8d5 153c 	ldr.w	r1, [r5, #1340]	; 0x53c
    5f3a:	69a0      	ldr	r0, [r4, #24]
    5f3c:	4288      	cmp	r0, r1
    5f3e:	d116      	bne.n	5f6e <uarte_irq_handler+0x96>
    5f40:	69e0      	ldr	r0, [r4, #28]
    5f42:	b178      	cbz	r0, 5f64 <uarte_irq_handler+0x8c>
    5f44:	68e2      	ldr	r2, [r4, #12]
    5f46:	f8d5 0200 	ldr.w	r0, [r5, #512]	; 0x200
    5f4a:	f020 0020 	bic.w	r0, r0, #32
    5f4e:	f8c5 0200 	str.w	r0, [r5, #512]	; 0x200
    5f52:	69e0      	ldr	r0, [r4, #28]
    5f54:	61a0      	str	r0, [r4, #24]
    5f56:	6920      	ldr	r0, [r4, #16]
    5f58:	60e0      	str	r0, [r4, #12]
    5f5a:	61e6      	str	r6, [r4, #28]
    5f5c:	4620      	mov	r0, r4
    5f5e:	f7ff fa91 	bl	5484 <rx_done_event>
    5f62:	e004      	b.n	5f6e <uarte_irq_handler+0x96>
    5f64:	61a6      	str	r6, [r4, #24]
    5f66:	4620      	mov	r0, r4
    5f68:	68e2      	ldr	r2, [r4, #12]
    5f6a:	f7ff fa8b 	bl	5484 <rx_done_event>
    5f6e:	f44f 77a2 	mov.w	r7, #324	; 0x144
    5f72:	4639      	mov	r1, r7
    5f74:	4628      	mov	r0, r5
    5f76:	f7fe fd9c 	bl	4ab2 <nrf_uarte_event_check>
    5f7a:	b168      	cbz	r0, 5f98 <uarte_irq_handler+0xc0>
    5f7c:	4639      	mov	r1, r7
    5f7e:	4628      	mov	r0, r5
    5f80:	f7fe fd9c 	bl	4abc <nrf_uarte_event_clear>
    5f84:	69a0      	ldr	r0, [r4, #24]
    5f86:	b138      	cbz	r0, 5f98 <uarte_irq_handler+0xc0>
    5f88:	61a6      	str	r6, [r4, #24]
    5f8a:	61e6      	str	r6, [r4, #28]
    5f8c:	f8d5 153c 	ldr.w	r1, [r5, #1340]	; 0x53c
    5f90:	4620      	mov	r0, r4
    5f92:	68e2      	ldr	r2, [r4, #12]
    5f94:	f7ff fa76 	bl	5484 <rx_done_event>
    5f98:	f44f 7690 	mov.w	r6, #288	; 0x120
    5f9c:	4631      	mov	r1, r6
    5f9e:	4628      	mov	r0, r5
    5fa0:	f7fe fd87 	bl	4ab2 <nrf_uarte_event_check>
    5fa4:	b160      	cbz	r0, 5fc0 <uarte_irq_handler+0xe8>
    5fa6:	4631      	mov	r1, r6
    5fa8:	4628      	mov	r0, r5
    5faa:	f7fe fd87 	bl	4abc <nrf_uarte_event_clear>
    5fae:	2001      	movs	r0, #1
    5fb0:	60e8      	str	r0, [r5, #12]
    5fb2:	6960      	ldr	r0, [r4, #20]
    5fb4:	b120      	cbz	r0, 5fc0 <uarte_irq_handler+0xe8>
    5fb6:	f8d5 154c 	ldr.w	r1, [r5, #1356]	; 0x54c
    5fba:	4620      	mov	r0, r4
    5fbc:	f7ff fe25 	bl	5c0a <tx_done_event>
    5fc0:	f44f 76ac 	mov.w	r6, #344	; 0x158
    5fc4:	4631      	mov	r1, r6
    5fc6:	4628      	mov	r0, r5
    5fc8:	f7fe fd73 	bl	4ab2 <nrf_uarte_event_check>
    5fcc:	2800      	cmp	r0, #0
    5fce:	d00e      	beq.n	5fee <uarte_irq_handler+0x116>
    5fd0:	4631      	mov	r1, r6
    5fd2:	4628      	mov	r0, r5
    5fd4:	f7fe fd72 	bl	4abc <nrf_uarte_event_clear>
    5fd8:	6960      	ldr	r0, [r4, #20]
    5fda:	2800      	cmp	r0, #0
    5fdc:	d007      	beq.n	5fee <uarte_irq_handler+0x116>
    5fde:	f8d5 154c 	ldr.w	r1, [r5, #1356]	; 0x54c
    5fe2:	b004      	add	sp, #16
    5fe4:	4620      	mov	r0, r4
    5fe6:	e8bd 41f0 	ldmia.w	sp!, {r4, r5, r6, r7, r8, lr}
    5fea:	f7ff be0e 	b.w	5c0a <tx_done_event>
    5fee:	e8bd 81ff 	ldmia.w	sp!, {r0, r1, r2, r3, r4, r5, r6, r7, r8, pc}
	...

00005ff4 <unsigned_print>:
    5ff4:	e92d 5ff0 	stmdb	sp!, {r4, r5, r6, r7, r8, r9, sl, fp, ip, lr}
    5ff8:	4683      	mov	fp, r0
    5ffa:	e9dd 4a0a 	ldrd	r4, sl, [sp, #40]	; 0x28
    5ffe:	4688      	mov	r8, r1
    6000:	4617      	mov	r7, r2
    6002:	4699      	mov	r9, r3
    6004:	4640      	mov	r0, r8
    6006:	2601      	movs	r6, #1
    6008:	e002      	b.n	6010 <unsigned_print+0x1c>
    600a:	fbb0 f0f7 	udiv	r0, r0, r7
    600e:	1c76      	adds	r6, r6, #1
    6010:	42b8      	cmp	r0, r7
    6012:	d2fa      	bcs.n	600a <unsigned_print+0x16>
    6014:	45b1      	cmp	r9, r6
    6016:	d900      	bls.n	601a <unsigned_print+0x26>
    6018:	464e      	mov	r6, r9
    601a:	ea5f 70ca 	movs.w	r0, sl, lsl #31
    601e:	d112      	bne.n	6046 <unsigned_print+0x52>
    6020:	b18c      	cbz	r4, 6046 <unsigned_print+0x52>
    6022:	ea5f 708a 	movs.w	r0, sl, lsl #30
    6026:	d502      	bpl.n	602e <unsigned_print+0x3a>
    6028:	f1b9 0f00 	cmp.w	r9, #0
    602c:	d001      	beq.n	6032 <unsigned_print+0x3e>
    602e:	2520      	movs	r5, #32
    6030:	e006      	b.n	6040 <unsigned_print+0x4c>
    6032:	2530      	movs	r5, #48	; 0x30
    6034:	e004      	b.n	6040 <unsigned_print+0x4c>
    6036:	1e64      	subs	r4, r4, #1
    6038:	4629      	mov	r1, r5
    603a:	4658      	mov	r0, fp
    603c:	f7fb ff60 	bl	1f00 <buffer_add>
    6040:	b10c      	cbz	r4, 6046 <unsigned_print+0x52>
    6042:	42a6      	cmp	r6, r4
    6044:	d3f7      	bcc.n	6036 <unsigned_print+0x42>
    6046:	2501      	movs	r5, #1
    6048:	f1b9 0f01 	cmp.w	r9, #1
    604c:	d902      	bls.n	6054 <unsigned_print+0x60>
    604e:	f1a9 0901 	sub.w	r9, r9, #1
    6052:	e018      	b.n	6086 <unsigned_print+0x92>
    6054:	fbb8 f0f5 	udiv	r0, r8, r5
    6058:	42b8      	cmp	r0, r7
    605a:	d214      	bcs.n	6086 <unsigned_print+0x92>
    605c:	f8df 9040 	ldr.w	r9, [pc, #64]	; 60a0 <unsigned_print+0xac>
    6060:	fbb8 f0f5 	udiv	r0, r8, r5
    6064:	fb00 8815 	mls	r8, r0, r5, r8
    6068:	f819 1000 	ldrb.w	r1, [r9, r0]
    606c:	4658      	mov	r0, fp
    606e:	f7fb ff47 	bl	1f00 <buffer_add>
    6072:	fbb5 f5f7 	udiv	r5, r5, r7
    6076:	2d00      	cmp	r5, #0
    6078:	d1f2      	bne.n	6060 <unsigned_print+0x6c>
    607a:	ea5f 70ca 	movs.w	r0, sl, lsl #31
    607e:	d000      	beq.n	6082 <unsigned_print+0x8e>
    6080:	b944      	cbnz	r4, 6094 <unsigned_print+0xa0>
    6082:	e8bd 9ff0 	ldmia.w	sp!, {r4, r5, r6, r7, r8, r9, sl, fp, ip, pc}
    6086:	437d      	muls	r5, r7
    6088:	e7de      	b.n	6048 <unsigned_print+0x54>
    608a:	1e64      	subs	r4, r4, #1
    608c:	2120      	movs	r1, #32
    608e:	4658      	mov	r0, fp
    6090:	f7fb ff36 	bl	1f00 <buffer_add>
    6094:	2c00      	cmp	r4, #0
    6096:	d0f4      	beq.n	6082 <unsigned_print+0x8e>
    6098:	42a6      	cmp	r6, r4
    609a:	d3f6      	bcc.n	608a <unsigned_print+0x96>
    609c:	e7f1      	b.n	6082 <unsigned_print+0x8e>
    609e:	0000      	.short	0x0000
    60a0:	00006124 	.word	0x00006124

000060a4 <update_bits_filter>:
    60a4:	e92d 41f0 	stmdb	sp!, {r4, r5, r6, r7, r8, lr}
    60a8:	4d13      	ldr	r5, [pc, #76]	; (60f8 <update_bits_filter+0x54>)
    60aa:	2600      	movs	r6, #0
    60ac:	606e      	str	r6, [r5, #4]
    60ae:	2400      	movs	r4, #0
    60b0:	2701      	movs	r7, #1
    60b2:	e00b      	b.n	60cc <update_bits_filter+0x28>
    60b4:	4621      	mov	r1, r4
    60b6:	f7fb ffcb 	bl	2050 <darray_get>
    60ba:	b130      	cbz	r0, 60ca <update_bits_filter+0x26>
    60bc:	6800      	ldr	r0, [r0, #0]
    60be:	6869      	ldr	r1, [r5, #4]
    60c0:	7900      	ldrb	r0, [r0, #4]
    60c2:	fa07 f000 	lsl.w	r0, r7, r0
    60c6:	4301      	orrs	r1, r0
    60c8:	6069      	str	r1, [r5, #4]
    60ca:	1c64      	adds	r4, r4, #1
    60cc:	68a8      	ldr	r0, [r5, #8]
    60ce:	6801      	ldr	r1, [r0, #0]
    60d0:	42a1      	cmp	r1, r4
    60d2:	dcef      	bgt.n	60b4 <update_bits_filter+0x10>
    60d4:	60ee      	str	r6, [r5, #12]
    60d6:	612e      	str	r6, [r5, #16]
    60d8:	69a8      	ldr	r0, [r5, #24]
    60da:	e008      	b.n	60ee <update_bits_filter+0x4a>
    60dc:	6929      	ldr	r1, [r5, #16]
    60de:	68c2      	ldr	r2, [r0, #12]
    60e0:	4311      	orrs	r1, r2
    60e2:	6129      	str	r1, [r5, #16]
    60e4:	68e9      	ldr	r1, [r5, #12]
    60e6:	6882      	ldr	r2, [r0, #8]
    60e8:	4311      	orrs	r1, r2
    60ea:	60e9      	str	r1, [r5, #12]
    60ec:	6840      	ldr	r0, [r0, #4]
    60ee:	2800      	cmp	r0, #0
    60f0:	d1f4      	bne.n	60dc <update_bits_filter+0x38>
    60f2:	e8bd 81f0 	ldmia.w	sp!, {r4, r5, r6, r7, r8, pc}
    60f6:	0000      	.short	0x0000
    60f8:	20001040 	.word	0x20001040
    60fc:	00000008 	.word	0x00000008
    6100:	00000006 	.word	0x00000006
    6104:	00000005 	.word	0x00000005
    6108:	00000007 	.word	0x00000007
    610c:	00000000 	.word	0x00000000
    6110:	01d7e000 	.word	0x01d7e000

00006114 <m_board_led_list>:
    6114:	100f0e0d                                ....

00006118 <m_board_btn_list>:
    6118:	19180c0b                                ....

0000611c <irq_handlers>:
    611c:	00004b0d                                .K..

00006120 <irq_handlers>:
    6120:	00004d1d                                .M..

00006124 <_aV2C>:
    6124:	33323130 37363534 42413938 46454443     0123456789ABCDEF
    6134:	ffffffff ffffffff ffffffff ffffffff     ................
	...
    614c:	01d60000 00000106                       ........

00006154 <nrf_log_backend_rtt_api>:
    6154:	000043f9 000043f7 000043f1              .C...C...C..

00006160 <delay_machine_code>:
    6160:	d8fd3803 00004770                       .8..pG..

00006168 <m_log_push_ringbuf>:
    6168:	20000778 0000007f 200007f8 000002f9     x.. ....... ....
    6178:	00000321 00000347 0000036d 00000393     !...G...m.......
    6188:	000003b9                                ....

0000618c <__ctype_table>:
    618c:	40404000 40404040 41414040 40414141     .@@@@@@@@@AAAAA@
    619c:	40404040 40404040 40404040 40404040     @@@@@@@@@@@@@@@@
    61ac:	02020540 02020202 02020202 02020202     @...............
    61bc:	20202002 20202020 02202020 02020202     .          .....
    61cc:	90900202 90909090 10101010 10101010     ................
    61dc:	10101010 10101010 10101010 02020202     ................
    61ec:	88880202 88888888 08080808 08080808     ................
    61fc:	08080808 08080808 08080808 02020202     ................
    620c:	00000040                                @...

00006210 <table>:
    6210:	0000618d 6e726177 00676e69 75626564     .a..warning.debu
    6220:	00000067 3b315b1b 006d3033 6d305b1b     g....[1;30m..[0m
    6230:	00000000 3b315b1b 006d3133 3b315b1b     .....[1;31m..[1;
    6240:	006d3233 3b315b1b 006d3333 3b315b1b     32m..[1;33m..[1;
    6250:	006d3433 3b315b1b 006d3533 3b315b1b     34m..[1;35m..[1;
    6260:	006d3633 3b315b1b 006d3733 6f666e69     36m..[1;37m.info
    6270:	00000000 6f727265 00000072 50546f49     ....error...IoTP
    6280:	68637461 696c4320 61735520 203a6567     atch Cli Usage: 
    6290:	206e7572 7864695b 207c205d 67697274     run [idx] | trig
    62a0:	20726567 6576635b 207c205d 63746170     ger [cve] | patc
    62b0:	635b2068 205d6576 6d76207c 69765b20     h [cve] | vm [vi
    62c0:	000a5d64 74736554 42504620 65726220     d]..Test FPB bre
    62d0:	6f706b61 20746e69 00646461 72617453     akpoint add.Star
    62e0:	61702074 20686374 76726573 00656369     t patch service.
    62f0:	61656c43 6c612072 7062206c 6120746b     Clear all bpkt a
    6300:	7020646e 68637461 00000000 74736554     nd patch....Test
    6310:	42504620 74617020 74206863 67676972      FPB patch trigg
    6320:	00007265 206e7552 66706265 73657420     er..Run ebpf tes
    6330:	00000074 63746170 6f642068 746f6e20     t...patch do not
    6340:	746e6920 65637265 74207470 6f206568      intercept the o
    6350:	69676972 7566206e 6974636e 203a6e6f     rigin function: 
    6360:	635f706f 3a65646f 20642520 203a6370     op_code: %d pc: 
    6370:	30257830 0a207838 00000000 5f627066     0x%08x .....fpb_
    6380:	61736964 5f656c62 5f727563 74736e69     disable_cur_inst
    6390:	7830203a 78383025 78656e20 30203a74     : 0x%08x next: 0
    63a0:	38302578 6b622078 203a7470 30257830     x%08x bkpt: 0x%0
    63b0:	66207838 635f6270 30203a62 38302578     8x fpb_cb: 0x%08
    63c0:	00000a78 7420796d 20747365 00657663     x...my test cve.
    63d0:	6870657a 635f7279 325f6576 5f303230     zephyr_cve_2020_
    63e0:	36303031 74612033 6b636174 616f635f     10063 attack_coa
    63f0:	00000070 6870657a 635f7279 325f6576     p...zephyr_cve_2
    6400:	5f303230 32303031 74612031 6b636174     020_10021 attack
    6410:	6273755f 73616d5f 00000073 6870657a     _usb_mass...zeph
    6420:	635f7279 325f6576 5f303230 36303031     yr_cve_2020_1006
    6430:	74612032 6b636174 74716d5f 00000074     2 attack_mqtt...
    6440:	54524155 00000000 54524155 00000045     UART....UARTE...
    6450:	00535250 5f747472 5f676f6c 6b636162     PRS.rtt_log_back
    6460:	00646e65 00707061                       end.app.

00006468 <Region$$Table$$Base>:
    6468:	000064cc 	.word	0x000064cc
    646c:	20000000 	.word	0x20000000
    6470:	00000408 	.word	0x00000408
    6474:	000009f2 	.word	0x000009f2
    6478:	0000669c 	.word	0x0000669c
    647c:	20000408 	.word	0x20000408
    6480:	00005520 	.word	0x00005520
    6484:	00000e34 	.word	0x00000e34

00006488 <rtt_log_backend>:
    6488:	00006154 00000000 00006454 20000040     Ta......Td..@.. 

00006498 <m_nrf_log_PRS_logs_data_const>:
    6498:	00006450 00000000                       Pd......

000064a0 <m_nrf_log_UART_logs_data_const>:
    64a0:	00006440 00000000                       @d......

000064a8 <m_nrf_log_UARTE_logs_data_const>:
    64a8:	00006448 00000000                       Hd......

000064b0 <m_nrf_log_app_logs_data_const>:
    64b0:	00006464 03030000                       dd......

000064b8 <log_mempool>:
    64b8:	20000050 20000048 20000050 200006b8     P.. H.. P.. ... 
    64c8:	00000018                                ....
